(igraphs.GridWithWeightsSoftObs
GridWithWeightsSoftObs
p1
(dp2
S'width'
p3
I64
sS'connectivity'
p4
S'four_connected'
p5
sS'weights'
p6
(dp7
(I32
I54
tp8
I1
s(I31
I6
tp9
I1
s(I53
I53
tp10
I1
s(I57
I50
tp11
I1
s(I40
I22
tp12
I1
s(I21
I28
tp13
I100
s(I4
I36
tp14
I1
s(I43
I3
tp15
I1
s(I8
I63
tp16
I1
s(I7
I25
tp17
I1
s(I46
I12
tp18
I1
s(I29
I44
tp19
I1
s(I33
I41
tp20
I1
s(I16
I47
tp21
I1
s(I36
I34
tp22
I1
s(I58
I19
tp23
I1
s(I41
I57
tp24
I1
s(I61
I38
tp25
I1
s(I44
I34
tp26
I1
s(I9
I0
tp27
I1
s(I48
I37
tp28
I1
s(I12
I59
tp29
I1
s(I34
I8
tp30
I1
s(I15
I30
tp31
I100
s(I37
I13
tp32
I1
s(I24
I14
tp33
I1
s(I62
I31
tp34
I1
s(I45
I61
tp35
I1
s(I49
I58
tp36
I1
s(I13
I20
tp37
I1
s(I52
I17
tp38
I1
s(I0
I55
tp39
I1
s(I20
I58
tp40
I1
s(I3
I2
tp41
I1
s(I25
I49
tp42
I1
s(I28
I10
tp43
I1
s(I50
I27
tp44
I1
s(I31
I15
tp45
I1
s(I53
I62
tp46
I1
s(I1
I40
tp47
I1
s(I57
I59
tp48
I1
s(I40
I29
tp49
I1
s(I21
I37
tp50
I100
s(I4
I35
tp51
I1
s(I8
I38
tp52
I1
s(I7
I22
tp53
I1
s(I46
I23
tp54
I1
s(I29
I37
tp55
I1
s(I33
I34
tp56
I1
s(I16
I38
tp57
I100
s(I36
I41
tp58
I1
s(I58
I26
tp59
I1
s(I41
I34
tp60
I1
s(I22
I12
tp61
I1
s(I61
I63
tp62
I1
s(I44
I25
tp63
I1
s(I9
I9
tp64
I1
s(I12
I50
tp65
I1
s(I34
I3
tp66
I1
s(I17
I57
tp67
I1
s(I37
I54
tp68
I1
s(I59
I9
tp69
I1
s(I24
I21
tp70
I1
s(I62
I6
tp71
I1
s(I45
I54
tp72
I1
s(I49
I51
tp73
I1
s(I13
I13
tp74
I1
s(I52
I24
tp75
I1
s(I0
I14
tp76
I1
s(I38
I31
tp77
I1
s(I3
I11
tp78
I1
s(I25
I58
tp79
I1
s(I28
I1
tp80
I1
s(I50
I18
tp81
I1
s(I53
I7
tp82
I1
s(I1
I33
tp83
I1
s(I57
I60
tp84
I1
s(I40
I4
tp85
I1
s(I21
I46
tp86
I1
s(I4
I42
tp87
I1
s(I8
I45
tp88
I1
s(I7
I15
tp89
I1
s(I46
I30
tp90
I1
s(I29
I62
tp91
I1
s(I33
I59
tp92
I1
s(I16
I29
tp93
I100
s(I54
I46
tp94
I1
s(I58
I37
tp95
I1
s(I41
I43
tp96
I1
s(I22
I7
tp97
I1
s(I5
I53
tp98
I1
s(I61
I56
tp99
I1
s(I44
I16
tp100
I1
s(I9
I50
tp101
I1
s(I47
I5
tp102
I1
s(I12
I41
tp103
I100
s(I34
I26
tp104
I1
s(I17
I50
tp105
I1
s(I37
I63
tp106
I1
s(I59
I14
tp107
I1
s(I24
I28
tp108
I100
s(I62
I9
tp109
I1
s(I45
I47
tp110
I1
s(I10
I19
tp111
I1
s(I49
I52
tp112
I1
s(I13
I6
tp113
I1
s(I0
I5
tp114
I1
s(I38
I22
tp115
I1
s(I25
I3
tp116
I1
s(I28
I24
tp117
I1
s(I50
I13
tp118
I1
s(I53
I0
tp119
I1
s(I1
I58
tp120
I1
s(I40
I11
tp121
I1
s(I21
I55
tp122
I1
s(I4
I17
tp123
I1
s(I26
I34
tp124
I100
s(I7
I4
tp125
I1
s(I46
I33
tp126
I1
s(I29
I55
tp127
I1
s(I33
I60
tp128
I1
s(I16
I20
tp129
I1
s(I54
I33
tp130
I1
s(I19
I1
tp131
I1
s(I58
I44
tp132
I1
s(I41
I44
tp133
I1
s(I22
I30
tp134
I100
s(I5
I62
tp135
I1
s(I61
I49
tp136
I1
s(I44
I15
tp137
I1
s(I9
I59
tp138
I1
s(I47
I2
tp139
I1
s(I12
I32
tp140
I100
s(I34
I21
tp141
I1
s(I17
I43
tp142
I100
s(I37
I56
tp143
I1
s(I59
I7
tp144
I1
s(I42
I53
tp145
I1
s(I62
I48
tp146
I1
s(I45
I40
tp147
I1
s(I10
I26
tp148
I1
s(I49
I45
tp149
I1
s(I13
I63
tp150
I1
s(I0
I28
tp151
I1
s(I38
I9
tp152
I1
s(I25
I4
tp153
I1
s(I63
I19
tp154
I1
s(I28
I23
tp155
I1
s(I50
I4
tp156
I1
s(I14
I38
tp157
I100
s(I53
I9
tp158
I1
s(I1
I51
tp159
I1
s(I21
I48
tp160
I1
s(I4
I24
tp161
I1
s(I26
I45
tp162
I1
s(I46
I40
tp163
I1
s(I29
I48
tp164
I1
s(I33
I53
tp165
I1
s(I16
I11
tp166
I1
s(I54
I56
tp167
I1
s(I19
I6
tp168
I1
s(I58
I55
tp169
I1
s(I41
I21
tp170
I1
s(I22
I17
tp171
I1
s(I5
I39
tp172
I1
s(I44
I6
tp173
I1
s(I9
I60
tp174
I1
s(I47
I11
tp175
I1
s(I30
I49
tp176
I1
s(I34
I44
tp177
I1
s(I17
I44
tp178
I1
s(I56
I1
tp179
I1
s(I37
I33
tp180
I1
s(I59
I28
tp181
I1
s(I42
I60
tp182
I1
s(I62
I59
tp183
I1
s(I45
I33
tp184
I1
s(I10
I5
tp185
I1
s(I49
I38
tp186
I1
s(I13
I56
tp187
I1
s(I35
I23
tp188
I1
s(I0
I19
tp189
I1
s(I38
I0
tp190
I1
s(I25
I13
tp191
I1
s(I63
I24
tp192
I1
s(I50
I63
tp193
I1
s(I14
I41
tp194
I100
s(I53
I18
tp195
I1
s(I1
I52
tp196
I1
s(I21
I57
tp197
I1
s(I4
I7
tp198
I1
s(I26
I52
tp199
I1
s(I46
I51
tp200
I1
s(I29
I9
tp201
I1
s(I51
I36
tp202
I1
s(I16
I2
tp203
I1
s(I54
I51
tp204
I1
s(I19
I15
tp205
I1
s(I2
I45
tp206
I1
s(I58
I62
tp207
I1
s(I41
I30
tp208
I1
s(I22
I40
tp209
I100
s(I5
I32
tp210
I1
s(I9
I37
tp211
I1
s(I47
I16
tp212
I1
s(I30
I56
tp213
I1
s(I34
I39
tp214
I1
s(I17
I37
tp215
I1
s(I56
I8
tp216
I1
s(I37
I42
tp217
I1
s(I59
I21
tp218
I1
s(I42
I39
tp219
I1
s(I23
I11
tp220
I1
s(I62
I34
tp221
I1
s(I45
I26
tp222
I1
s(I10
I12
tp223
I1
s(I13
I49
tp224
I1
s(I35
I28
tp225
I1
s(I18
I60
tp226
I1
s(I38
I59
tp227
I1
s(I60
I12
tp228
I1
s(I25
I22
tp229
I1
s(I63
I1
tp230
I1
s(I50
I54
tp231
I1
s(I14
I48
tp232
I1
s(I53
I27
tp233
I1
s(I1
I13
tp234
I1
s(I39
I24
tp235
I1
s(I4
I14
tp236
I1
s(I26
I63
tp237
I1
s(I46
I58
tp238
I1
s(I29
I2
tp239
I1
s(I51
I45
tp240
I1
s(I54
I10
tp241
I1
s(I19
I20
tp242
I1
s(I2
I36
tp243
I1
s(I58
I57
tp244
I1
s(I41
I7
tp245
I1
s(I22
I35
tp246
I100
s(I5
I41
tp247
I1
s(I9
I46
tp248
I1
s(I47
I25
tp249
I1
s(I30
I35
tp250
I1
s(I34
I62
tp251
I1
s(I17
I30
tp252
I100
s(I56
I15
tp253
I1
s(I55
I41
tp254
I1
s(I59
I42
tp255
I1
s(I42
I46
tp256
I1
s(I23
I0
tp257
I1
s(I6
I56
tp258
I1
s(I62
I37
tp259
I1
s(I45
I19
tp260
I1
s(I10
I55
tp261
I1
s(I32
I8
tp262
I1
s(I13
I42
tp263
I100
s(I35
I5
tp264
I1
s(I18
I55
tp265
I1
s(I38
I50
tp266
I1
s(I60
I11
tp267
I1
s(I25
I31
tp268
I100
s(I63
I14
tp269
I1
s(I11
I28
tp270
I100
s(I50
I49
tp271
I1
s(I14
I59
tp272
I1
s(I1
I6
tp273
I1
s(I39
I17
tp274
I1
s(I26
I6
tp275
I1
s(I46
I61
tp276
I1
s(I29
I27
tp277
I1
s(I51
I50
tp278
I1
s(I54
I13
tp279
I1
s(I19
I29
tp280
I100
s(I2
I63
tp281
I1
s(I41
I8
tp282
I1
s(I22
I58
tp283
I1
s(I5
I18
tp284
I1
s(I27
I45
tp285
I1
s(I47
I38
tp286
I1
s(I30
I42
tp287
I1
s(I34
I57
tp288
I1
s(I17
I23
tp289
I1
s(I56
I22
tp290
I1
s(I55
I38
tp291
I1
s(I20
I4
tp292
I1
s(I59
I35
tp293
I1
s(I42
I41
tp294
I1
s(I23
I25
tp295
I1
s(I6
I51
tp296
I1
s(I62
I44
tp297
I1
s(I45
I12
tp298
I1
s(I10
I62
tp299
I1
s(I32
I15
tp300
I1
s(I13
I35
tp301
I1
s(I35
I10
tp302
I1
s(I18
I46
tp303
I1
s(I38
I53
tp304
I1
s(I60
I2
tp305
I1
s(I43
I58
tp306
I1
s(I63
I55
tp307
I1
s(I11
I21
tp308
I1
s(I50
I40
tp309
I1
s(I14
I2
tp310
I1
s(I1
I31
tp311
I1
s(I39
I14
tp312
I1
s(I26
I1
tp313
I1
s(I48
I30
tp314
I1
s(I29
I20
tp315
I1
s(I51
I59
tp316
I1
s(I15
I33
tp317
I100
s(I54
I4
tp318
I1
s(I19
I34
tp319
I1
s(I2
I54
tp320
I1
s(I22
I61
tp321
I1
s(I5
I27
tp322
I1
s(I27
I34
tp323
I1
s(I47
I47
tp324
I1
s(I30
I45
tp325
I1
s(I34
I48
tp326
I1
s(I17
I8
tp327
I1
s(I56
I29
tp328
I1
s(I55
I63
tp329
I1
s(I20
I3
tp330
I1
s(I59
I56
tp331
I1
s(I42
I16
tp332
I1
s(I23
I22
tp333
I1
s(I6
I42
tp334
I1
s(I45
I5
tp335
I1
s(I10
I57
tp336
I1
s(I32
I6
tp337
I1
s(I31
I54
tp338
I1
s(I35
I51
tp339
I1
s(I18
I41
tp340
I100
s(I57
I2
tp341
I1
s(I38
I44
tp342
I1
s(I60
I25
tp343
I1
s(I43
I51
tp344
I1
s(I63
I60
tp345
I1
s(I11
I10
tp346
I1
s(I50
I35
tp347
I1
s(I14
I5
tp348
I1
s(I36
I18
tp349
I1
s(I1
I16
tp350
I1
s(I39
I7
tp351
I1
s(I26
I8
tp352
I1
s(I48
I21
tp353
I1
s(I51
I0
tp354
I1
s(I15
I46
tp355
I1
s(I54
I31
tp356
I1
s(I19
I43
tp357
I100
s(I2
I49
tp358
I1
s(I22
I52
tp359
I1
s(I5
I4
tp360
I1
s(I27
I59
tp361
I1
s(I47
I52
tp362
I1
s(I30
I20
tp363
I1
s(I52
I33
tp364
I1
s(I17
I1
tp365
I1
s(I56
I36
tp366
I1
s(I55
I52
tp367
I1
s(I20
I10
tp368
I1
s(I3
I50
tp369
I1
s(I59
I49
tp370
I1
s(I42
I27
tp371
I1
s(I23
I47
tp372
I1
s(I6
I45
tp373
I1
s(I10
I32
tp374
I1
s(I32
I29
tp375
I1
s(I31
I63
tp376
I1
s(I35
I56
tp377
I1
s(I18
I32
tp378
I100
s(I57
I11
tp379
I1
s(I38
I39
tp380
I1
s(I60
I16
tp381
I1
s(I43
I40
tp382
I1
s(I8
I22
tp383
I1
s(I63
I37
tp384
I1
s(I11
I3
tp385
I1
s(I14
I12
tp386
I1
s(I36
I25
tp387
I1
s(I39
I60
tp388
I1
s(I61
I15
tp389
I1
s(I26
I19
tp390
I1
s(I48
I12
tp391
I1
s(I51
I9
tp392
I1
s(I15
I55
tp393
I1
s(I54
I22
tp394
I1
s(I19
I48
tp395
I1
s(I2
I8
tp396
I1
s(I24
I37
tp397
I100
s(I5
I13
tp398
I1
s(I27
I48
tp399
I1
s(I47
I61
tp400
I1
s(I30
I31
tp401
I1
s(I52
I40
tp402
I1
s(I56
I43
tp403
I1
s(I55
I13
tp404
I1
s(I20
I17
tp405
I1
s(I3
I59
tp406
I1
s(I59
I54
tp407
I1
s(I42
I2
tp408
I1
s(I23
I36
tp409
I100
s(I6
I36
tp410
I1
s(I10
I43
tp411
I1
s(I32
I20
tp412
I1
s(I31
I36
tp413
I1
s(I35
I33
tp414
I1
s(I18
I27
tp415
I1
s(I57
I12
tp416
I1
s(I40
I52
tp417
I1
s(I60
I47
tp418
I1
s(I43
I33
tp419
I1
s(I8
I29
tp420
I1
s(I7
I63
tp421
I1
s(I63
I34
tp422
I1
s(I11
I56
tp423
I1
s(I33
I11
tp424
I1
s(I14
I23
tp425
I1
s(I36
I0
tp426
I1
s(I39
I53
tp427
I1
s(I61
I8
tp428
I1
s(I26
I26
tp429
I1
s(I48
I3
tp430
I1
s(I12
I25
tp431
I1
s(I51
I14
tp432
I1
s(I15
I60
tp433
I1
s(I19
I57
tp434
I1
s(I2
I3
tp435
I1
s(I24
I44
tp436
I1
s(I27
I9
tp437
I1
s(I47
I58
tp438
I1
s(I30
I6
tp439
I1
s(I52
I55
tp440
I1
s(I56
I50
tp441
I1
s(I55
I10
tp442
I1
s(I20
I24
tp443
I1
s(I3
I32
tp444
I1
s(I42
I13
tp445
I1
s(I23
I61
tp446
I1
s(I6
I31
tp447
I1
s(I28
I40
tp448
I1
s(I32
I43
tp449
I1
s(I31
I45
tp450
I1
s(I35
I38
tp451
I1
s(I18
I18
tp452
I1
s(I57
I21
tp453
I1
s(I40
I59
tp454
I1
s(I21
I7
tp455
I1
s(I60
I38
tp456
I1
s(I43
I38
tp457
I1
s(I8
I4
tp458
I1
s(I7
I52
tp459
I1
s(I63
I43
tp460
I1
s(I11
I49
tp461
I1
s(I33
I12
tp462
I1
s(I14
I30
tp463
I100
s(I36
I15
tp464
I1
s(I39
I50
tp465
I1
s(I61
I1
tp466
I1
s(I44
I63
tp467
I1
s(I48
I58
tp468
I1
s(I12
I16
tp469
I1
s(I51
I23
tp470
I1
s(I15
I5
tp471
I1
s(I19
I62
tp472
I1
s(I2
I26
tp473
I1
s(I24
I51
tp474
I1
s(I27
I14
tp475
I1
s(I49
I29
tp476
I1
s(I30
I9
tp477
I1
s(I52
I62
tp478
I1
s(I0
I44
tp479
I1
s(I56
I57
tp480
I1
s(I55
I3
tp481
I1
s(I20
I39
tp482
I100
s(I3
I41
tp483
I1
s(I23
I58
tp484
I1
s(I6
I22
tp485
I1
s(I28
I39
tp486
I1
s(I32
I34
tp487
I1
s(I31
I42
tp488
I1
s(I35
I47
tp489
I1
s(I18
I13
tp490
I1
s(I57
I30
tp491
I1
s(I40
I34
tp492
I1
s(I21
I0
tp493
I1
s(I60
I61
tp494
I1
s(I43
I31
tp495
I1
s(I8
I11
tp496
I1
s(I7
I45
tp497
I1
s(I11
I54
tp498
I1
s(I33
I5
tp499
I1
s(I16
I59
tp500
I1
s(I36
I54
tp501
I1
s(I58
I7
tp502
I1
s(I39
I43
tp503
I1
s(I61
I26
tp504
I1
s(I44
I54
tp505
I1
s(I48
I49
tp506
I1
s(I12
I15
tp507
I1
s(I51
I28
tp508
I1
s(I15
I2
tp509
I1
s(I37
I17
tp510
I1
s(I2
I21
tp511
I1
s(I24
I58
tp512
I1
s(I27
I7
tp513
I1
s(I49
I22
tp514
I1
s(I52
I5
tp515
I1
s(I0
I35
tp516
I1
s(I55
I24
tp517
I1
s(I20
I46
tp518
I1
s(I3
I46
tp519
I1
s(I23
I51
tp520
I1
s(I6
I9
tp521
I1
s(I28
I62
tp522
I1
s(I32
I57
tp523
I1
s(I31
I19
tp524
I1
s(I53
I34
tp525
I1
s(I18
I4
tp526
I1
s(I57
I39
tp527
I1
s(I40
I41
tp528
I1
s(I21
I9
tp529
I1
s(I4
I55
tp530
I1
s(I60
I52
tp531
I1
s(I43
I20
tp532
I1
s(I8
I50
tp533
I1
s(I7
I42
tp534
I1
s(I46
I3
tp535
I1
s(I11
I47
tp536
I1
s(I33
I30
tp537
I1
s(I16
I50
tp538
I1
s(I36
I61
tp539
I1
s(I58
I14
tp540
I1
s(I39
I32
tp541
I1
s(I61
I19
tp542
I1
s(I44
I45
tp543
I1
s(I9
I21
tp544
I1
s(I48
I40
tp545
I1
s(I12
I6
tp546
I1
s(I15
I11
tp547
I1
s(I37
I26
tp548
I1
s(I24
I1
tp549
I1
s(I62
I18
tp550
I1
s(I27
I28
tp551
I1
s(I49
I15
tp552
I1
s(I52
I12
tp553
I1
s(I0
I58
tp554
I1
s(I55
I17
tp555
I1
s(I20
I53
tp556
I1
s(I3
I23
tp557
I1
s(I25
I38
tp558
I100
s(I6
I0
tp559
I1
s(I28
I53
tp560
I1
s(I32
I48
tp561
I1
s(I31
I24
tp562
I1
s(I53
I43
tp563
I1
s(I57
I40
tp564
I1
s(I40
I16
tp565
I1
s(I21
I18
tp566
I1
s(I4
I62
tp567
I1
s(I60
I51
tp568
I1
s(I43
I13
tp569
I1
s(I8
I57
tp570
I1
s(I7
I35
tp571
I1
s(I46
I10
tp572
I1
s(I11
I36
tp573
I1
s(I33
I23
tp574
I1
s(I16
I41
tp575
I100
s(I36
I36
tp576
I1
s(I58
I9
tp577
I1
s(I41
I55
tp578
I1
s(I61
I44
tp579
I1
s(I44
I36
tp580
I1
s(I9
I30
tp581
I1
s(I48
I47
tp582
I1
s(I12
I61
tp583
I1
s(I34
I14
tp584
I1
s(I15
I16
tp585
I1
s(I37
I3
tp586
I1
s(I24
I8
tp587
I1
s(I62
I21
tp588
I1
s(I27
I21
tp589
I1
s(I49
I0
tp590
I1
s(I13
I26
tp591
I1
s(I52
I11
tp592
I1
s(I0
I49
tp593
I1
s(I20
I60
tp594
I1
s(I3
I28
tp595
I1
s(I25
I47
tp596
I1
s(I28
I12
tp597
I1
s(I32
I55
tp598
I1
s(I31
I1
tp599
I1
s(I53
I52
tp600
I1
s(I57
I49
tp601
I1
s(I40
I23
tp602
I1
s(I21
I27
tp603
I1
s(I4
I37
tp604
I1
s(I43
I2
tp605
I1
s(I8
I32
tp606
I1
s(I7
I24
tp607
I1
s(I46
I13
tp608
I1
s(I29
I43
tp609
I1
s(I33
I40
tp610
I1
s(I16
I32
tp611
I100
s(I36
I35
tp612
I1
s(I58
I16
tp613
I1
s(I41
I56
tp614
I1
s(I22
I10
tp615
I1
s(I61
I37
tp616
I1
s(I44
I35
tp617
I1
s(I9
I7
tp618
I1
s(I48
I38
tp619
I1
s(I12
I52
tp620
I1
s(I34
I9
tp621
I1
s(I15
I25
tp622
I1
s(I37
I12
tp623
I1
s(I24
I15
tp624
I1
s(I62
I28
tp625
I1
s(I45
I60
tp626
I1
s(I49
I57
tp627
I1
s(I13
I19
tp628
I1
s(I52
I18
tp629
I1
s(I0
I8
tp630
I1
s(I20
I59
tp631
I1
s(I3
I5
tp632
I1
s(I25
I48
tp633
I1
s(I28
I11
tp634
I1
s(I50
I24
tp635
I1
s(I31
I14
tp636
I1
s(I53
I61
tp637
I1
s(I1
I47
tp638
I1
s(I57
I58
tp639
I1
s(I40
I30
tp640
I1
s(I21
I36
tp641
I100
s(I4
I44
tp642
I1
s(I8
I39
tp643
I1
s(I7
I17
tp644
I1
s(I46
I20
tp645
I1
s(I29
I36
tp646
I1
s(I33
I33
tp647
I1
s(I16
I39
tp648
I100
s(I36
I42
tp649
I1
s(I58
I27
tp650
I1
s(I41
I33
tp651
I1
s(I22
I13
tp652
I1
s(I61
I62
tp653
I1
s(I44
I26
tp654
I1
s(I9
I8
tp655
I1
s(I12
I51
tp656
I1
s(I34
I0
tp657
I1
s(I17
I56
tp658
I1
s(I37
I53
tp659
I1
s(I59
I8
tp660
I1
s(I24
I22
tp661
I1
s(I62
I7
tp662
I1
s(I45
I53
tp663
I1
s(I49
I50
tp664
I1
s(I13
I12
tp665
I1
s(I52
I25
tp666
I1
s(I0
I15
tp667
I1
s(I38
I28
tp668
I1
s(I3
I10
tp669
I1
s(I25
I57
tp670
I1
s(I28
I2
tp671
I1
s(I50
I19
tp672
I1
s(I53
I6
tp673
I1
s(I1
I32
tp674
I1
s(I40
I5
tp675
I1
s(I21
I45
tp676
I1
s(I4
I43
tp677
I1
s(I8
I46
tp678
I1
s(I7
I14
tp679
I1
s(I46
I31
tp680
I1
s(I29
I61
tp681
I1
s(I33
I58
tp682
I1
s(I16
I30
tp683
I100
s(I54
I47
tp684
I1
s(I58
I34
tp685
I1
s(I41
I42
tp686
I1
s(I22
I4
tp687
I1
s(I5
I52
tp688
I1
s(I61
I55
tp689
I1
s(I44
I17
tp690
I1
s(I9
I49
tp691
I1
s(I47
I4
tp692
I1
s(I12
I42
tp693
I100
s(I34
I27
tp694
I1
s(I17
I49
tp695
I1
s(I37
I62
tp696
I1
s(I59
I1
tp697
I1
s(I24
I29
tp698
I100
s(I62
I14
tp699
I1
s(I45
I46
tp700
I1
s(I10
I16
tp701
I1
s(I49
I43
tp702
I1
s(I13
I5
tp703
I1
s(I0
I6
tp704
I1
s(I38
I23
tp705
I1
s(I25
I2
tp706
I1
s(I63
I21
tp707
I1
s(I28
I25
tp708
I1
s(I50
I10
tp709
I1
s(I53
I15
tp710
I1
s(I1
I57
tp711
I1
s(I40
I12
tp712
I1
s(I21
I54
tp713
I1
s(I4
I18
tp714
I1
s(I26
I35
tp715
I100
s(I7
I7
tp716
I1
s(I46
I38
tp717
I1
s(I29
I54
tp718
I1
s(I33
I51
tp719
I1
s(I16
I21
tp720
I1
s(I54
I38
tp721
I1
s(I19
I0
tp722
I1
s(I58
I45
tp723
I1
s(I41
I19
tp724
I1
s(I22
I31
tp725
I100
s(I5
I61
tp726
I1
s(I61
I48
tp727
I1
s(I44
I8
tp728
I1
s(I9
I58
tp729
I1
s(I47
I13
tp730
I1
s(I12
I33
tp731
I100
s(I34
I18
tp732
I1
s(I17
I42
tp733
I100
s(I37
I39
tp734
I1
s(I59
I6
tp735
I1
s(I42
I50
tp736
I1
s(I62
I49
tp737
I1
s(I45
I39
tp738
I1
s(I10
I27
tp739
I1
s(I49
I44
tp740
I1
s(I13
I62
tp741
I1
s(I35
I17
tp742
I1
s(I0
I29
tp743
I1
s(I38
I14
tp744
I1
s(I25
I11
tp745
I1
s(I63
I18
tp746
I1
s(I28
I16
tp747
I1
s(I50
I5
tp748
I1
s(I14
I39
tp749
I100
s(I53
I8
tp750
I1
s(I1
I50
tp751
I1
s(I21
I63
tp752
I1
s(I4
I25
tp753
I1
s(I26
I42
tp754
I100
s(I46
I41
tp755
I1
s(I29
I15
tp756
I1
s(I33
I52
tp757
I1
s(I16
I12
tp758
I1
s(I54
I57
tp759
I1
s(I19
I9
tp760
I1
s(I58
I52
tp761
I1
s(I41
I20
tp762
I1
s(I22
I22
tp763
I1
s(I5
I38
tp764
I1
s(I44
I7
tp765
I1
s(I9
I35
tp766
I1
s(I47
I10
tp767
I1
s(I30
I54
tp768
I1
s(I34
I45
tp769
I1
s(I17
I35
tp770
I1
s(I56
I2
tp771
I1
s(I37
I32
tp772
I1
s(I59
I31
tp773
I1
s(I42
I61
tp774
I1
s(I23
I13
tp775
I1
s(I62
I56
tp776
I1
s(I45
I32
tp777
I1
s(I10
I2
tp778
I1
s(I49
I37
tp779
I1
s(I13
I55
tp780
I1
s(I35
I22
tp781
I1
s(I0
I20
tp782
I1
s(I38
I1
tp783
I1
s(I25
I12
tp784
I1
s(I63
I27
tp785
I1
s(I50
I60
tp786
I1
s(I14
I46
tp787
I1
s(I53
I17
tp788
I1
s(I1
I11
tp789
I1
s(I21
I56
tp790
I1
s(I4
I0
tp791
I1
s(I26
I53
tp792
I1
s(I46
I48
tp793
I1
s(I29
I8
tp794
I1
s(I51
I39
tp795
I1
s(I16
I3
tp796
I1
s(I54
I48
tp797
I1
s(I19
I14
tp798
I1
s(I2
I42
tp799
I1
s(I58
I63
tp800
I1
s(I41
I29
tp801
I1
s(I22
I41
tp802
I100
s(I5
I47
tp803
I1
s(I9
I36
tp804
I1
s(I47
I19
tp805
I1
s(I30
I57
tp806
I1
s(I34
I36
tp807
I1
s(I17
I36
tp808
I1
s(I56
I9
tp809
I1
s(I37
I41
tp810
I1
s(I59
I20
tp811
I1
s(I42
I36
tp812
I1
s(I23
I10
tp813
I1
s(I62
I35
tp814
I1
s(I45
I25
tp815
I1
s(I10
I13
tp816
I1
s(I13
I48
tp817
I1
s(I35
I31
tp818
I1
s(I18
I61
tp819
I1
s(I38
I56
tp820
I1
s(I60
I13
tp821
I1
s(I25
I21
tp822
I1
s(I63
I0
tp823
I1
s(I50
I55
tp824
I1
s(I14
I49
tp825
I1
s(I53
I26
tp826
I1
s(I1
I12
tp827
I1
s(I39
I27
tp828
I1
s(I4
I15
tp829
I1
s(I26
I60
tp830
I1
s(I46
I59
tp831
I1
s(I29
I1
tp832
I1
s(I51
I44
tp833
I1
s(I54
I11
tp834
I1
s(I19
I23
tp835
I1
s(I2
I37
tp836
I1
s(I41
I6
tp837
I1
s(I22
I32
tp838
I100
s(I5
I40
tp839
I1
s(I9
I45
tp840
I1
s(I47
I24
tp841
I1
s(I30
I32
tp842
I1
s(I34
I63
tp843
I1
s(I17
I29
tp844
I100
s(I56
I16
tp845
I1
s(I55
I40
tp846
I1
s(I59
I45
tp847
I1
s(I42
I47
tp848
I1
s(I23
I3
tp849
I1
s(I6
I57
tp850
I1
s(I62
I42
tp851
I1
s(I45
I18
tp852
I1
s(I10
I52
tp853
I1
s(I32
I9
tp854
I1
s(I13
I41
tp855
I100
s(I35
I4
tp856
I1
s(I18
I52
tp857
I1
s(I38
I51
tp858
I1
s(I60
I4
tp859
I1
s(I25
I30
tp860
I100
s(I63
I9
tp861
I1
s(I11
I31
tp862
I100
s(I50
I46
tp863
I1
s(I14
I56
tp864
I1
s(I1
I5
tp865
I1
s(I39
I16
tp866
I1
s(I26
I7
tp867
I1
s(I48
I24
tp868
I1
s(I29
I26
tp869
I1
s(I51
I53
tp870
I1
s(I54
I2
tp871
I1
s(I19
I28
tp872
I100
s(I2
I60
tp873
I1
s(I41
I15
tp874
I1
s(I22
I59
tp875
I1
s(I5
I17
tp876
I1
s(I27
I44
tp877
I1
s(I47
I33
tp878
I1
s(I30
I43
tp879
I1
s(I34
I54
tp880
I1
s(I17
I22
tp881
I1
s(I56
I23
tp882
I1
s(I55
I33
tp883
I1
s(I20
I5
tp884
I1
s(I59
I34
tp885
I1
s(I42
I22
tp886
I1
s(I23
I24
tp887
I1
s(I6
I48
tp888
I1
s(I62
I45
tp889
I1
s(I45
I11
tp890
I1
s(I10
I63
tp891
I1
s(I32
I0
tp892
I1
s(I13
I34
tp893
I1
s(I35
I13
tp894
I1
s(I18
I47
tp895
I1
s(I38
I42
tp896
I1
s(I60
I3
tp897
I1
s(I43
I61
tp898
I1
s(I63
I54
tp899
I1
s(I11
I20
tp900
I1
s(I50
I41
tp901
I1
s(I14
I3
tp902
I1
s(I36
I20
tp903
I1
s(I1
I30
tp904
I1
s(I39
I9
tp905
I1
s(I26
I14
tp906
I1
s(I48
I31
tp907
I1
s(I29
I19
tp908
I1
s(I51
I58
tp909
I1
s(I15
I32
tp910
I100
s(I54
I5
tp911
I1
s(I19
I37
tp912
I1
s(I2
I55
tp913
I1
s(I22
I50
tp914
I1
s(I5
I26
tp915
I1
s(I27
I37
tp916
I1
s(I47
I46
tp917
I1
s(I30
I18
tp918
I1
s(I34
I49
tp919
I1
s(I17
I15
tp920
I1
s(I56
I30
tp921
I1
s(I55
I62
tp922
I1
s(I20
I12
tp923
I1
s(I59
I59
tp924
I1
s(I42
I17
tp925
I1
s(I23
I17
tp926
I1
s(I6
I43
tp927
I1
s(I45
I4
tp928
I1
s(I10
I38
tp929
I1
s(I32
I7
tp930
I1
s(I31
I49
tp931
I1
s(I35
I50
tp932
I1
s(I18
I38
tp933
I100
s(I57
I1
tp934
I1
s(I38
I45
tp935
I1
s(I60
I26
tp936
I1
s(I43
I50
tp937
I1
s(I8
I16
tp938
I1
s(I63
I63
tp939
I1
s(I11
I13
tp940
I1
s(I50
I32
tp941
I1
s(I14
I10
tp942
I1
s(I36
I19
tp943
I1
s(I1
I23
tp944
I1
s(I39
I6
tp945
I1
s(I26
I9
tp946
I1
s(I48
I22
tp947
I1
s(I51
I3
tp948
I1
s(I15
I41
tp949
I100
s(I54
I28
tp950
I1
s(I19
I42
tp951
I100
s(I2
I14
tp952
I1
s(I22
I53
tp953
I1
s(I5
I3
tp954
I1
s(I27
I58
tp955
I1
s(I47
I55
tp956
I1
s(I30
I21
tp957
I1
s(I52
I34
tp958
I1
s(I17
I0
tp959
I1
s(I56
I37
tp960
I1
s(I55
I55
tp961
I1
s(I20
I11
tp962
I1
s(I3
I53
tp963
I1
s(I59
I48
tp964
I1
s(I42
I24
tp965
I1
s(I23
I46
tp966
I1
s(I6
I34
tp967
I1
s(I10
I33
tp968
I1
s(I32
I30
tp969
I1
s(I31
I62
tp970
I1
s(I35
I59
tp971
I1
s(I18
I33
tp972
I100
s(I57
I10
tp973
I1
s(I38
I36
tp974
I1
s(I60
I17
tp975
I1
s(I43
I43
tp976
I1
s(I8
I23
tp977
I1
s(I63
I36
tp978
I1
s(I11
I2
tp979
I1
s(I14
I13
tp980
I1
s(I36
I26
tp981
I1
s(I39
I63
tp982
I1
s(I61
I14
tp983
I1
s(I26
I16
tp984
I1
s(I48
I13
tp985
I1
s(I51
I8
tp986
I1
s(I15
I54
tp987
I1
s(I54
I23
tp988
I1
s(I19
I51
tp989
I1
s(I2
I9
tp990
I1
s(I24
I38
tp991
I100
s(I5
I12
tp992
I1
s(I27
I51
tp993
I1
s(I47
I60
tp994
I1
s(I30
I28
tp995
I1
s(I52
I41
tp996
I1
s(I56
I44
tp997
I1
s(I55
I12
tp998
I1
s(I20
I18
tp999
I1
s(I3
I58
tp1000
I1
s(I42
I3
tp1001
I1
s(I23
I39
tp1002
I100
s(I6
I37
tp1003
I1
s(I10
I40
tp1004
I1
s(I32
I21
tp1005
I1
s(I31
I39
tp1006
I1
s(I35
I32
tp1007
I1
s(I18
I24
tp1008
I1
s(I57
I19
tp1009
I1
s(I40
I53
tp1010
I1
s(I60
I40
tp1011
I1
s(I43
I32
tp1012
I1
s(I8
I30
tp1013
I1
s(I7
I62
tp1014
I1
s(I63
I45
tp1015
I1
s(I11
I59
tp1016
I1
s(I33
I10
tp1017
I1
s(I14
I20
tp1018
I1
s(I36
I1
tp1019
I1
s(I39
I52
tp1020
I1
s(I61
I7
tp1021
I1
s(I26
I27
tp1022
I1
s(I48
I4
tp1023
I1
s(I12
I26
tp1024
I1
s(I51
I17
tp1025
I1
s(I15
I63
tp1026
I1
s(I19
I56
tp1027
I1
s(I2
I0
tp1028
I1
s(I24
I45
tp1029
I1
s(I27
I8
tp1030
I1
s(I49
I27
tp1031
I1
s(I30
I7
tp1032
I1
s(I52
I48
tp1033
I1
s(I56
I51
tp1034
I1
s(I55
I5
tp1035
I1
s(I20
I25
tp1036
I1
s(I3
I35
tp1037
I1
s(I42
I10
tp1038
I1
s(I23
I60
tp1039
I1
s(I6
I28
tp1040
I1
s(I28
I41
tp1041
I1
s(I32
I44
tp1042
I1
s(I31
I44
tp1043
I1
s(I35
I41
tp1044
I1
s(I18
I19
tp1045
I1
s(I57
I20
tp1046
I1
s(I40
I60
tp1047
I1
s(I21
I6
tp1048
I1
s(I60
I39
tp1049
I1
s(I43
I25
tp1050
I1
s(I8
I5
tp1051
I1
s(I7
I55
tp1052
I1
s(I63
I42
tp1053
I1
s(I11
I48
tp1054
I1
s(I33
I3
tp1055
I1
s(I14
I31
tp1056
I100
s(I36
I8
tp1057
I1
s(I39
I45
tp1058
I1
s(I61
I0
tp1059
I1
s(I44
I56
tp1060
I1
s(I48
I59
tp1061
I1
s(I12
I17
tp1062
I1
s(I51
I22
tp1063
I1
s(I15
I4
tp1064
I1
s(I37
I23
tp1065
I1
s(I2
I27
tp1066
I1
s(I24
I52
tp1067
I1
s(I27
I1
tp1068
I1
s(I49
I28
tp1069
I1
s(I30
I14
tp1070
I1
s(I52
I63
tp1071
I1
s(I0
I45
tp1072
I1
s(I56
I58
tp1073
I1
s(I55
I2
tp1074
I1
s(I20
I32
tp1075
I100
s(I3
I40
tp1076
I1
s(I23
I53
tp1077
I1
s(I6
I23
tp1078
I1
s(I28
I32
tp1079
I1
s(I32
I35
tp1080
I1
s(I31
I21
tp1081
I1
s(I35
I46
tp1082
I1
s(I18
I10
tp1083
I1
s(I57
I29
tp1084
I1
s(I40
I35
tp1085
I1
s(I21
I15
tp1086
I1
s(I60
I62
tp1087
I1
s(I43
I30
tp1088
I1
s(I8
I12
tp1089
I1
s(I7
I44
tp1090
I1
s(I11
I41
tp1091
I100
s(I33
I4
tp1092
I1
s(I16
I60
tp1093
I1
s(I36
I55
tp1094
I1
s(I58
I4
tp1095
I1
s(I39
I42
tp1096
I1
s(I61
I25
tp1097
I1
s(I44
I55
tp1098
I1
s(I9
I19
tp1099
I1
s(I48
I50
tp1100
I1
s(I12
I8
tp1101
I1
s(I51
I31
tp1102
I1
s(I15
I13
tp1103
I1
s(I37
I16
tp1104
I1
s(I2
I18
tp1105
I1
s(I24
I59
tp1106
I1
s(I27
I6
tp1107
I1
s(I49
I21
tp1108
I1
s(I52
I6
tp1109
I1
s(I0
I36
tp1110
I1
s(I55
I27
tp1111
I1
s(I20
I47
tp1112
I1
s(I3
I17
tp1113
I1
s(I23
I50
tp1114
I1
s(I6
I14
tp1115
I1
s(I28
I63
tp1116
I1
s(I32
I58
tp1117
I1
s(I31
I18
tp1118
I1
s(I53
I33
tp1119
I1
s(I18
I5
tp1120
I1
s(I57
I38
tp1121
I1
s(I40
I42
tp1122
I1
s(I21
I8
tp1123
I1
s(I4
I48
tp1124
I1
s(I60
I53
tp1125
I1
s(I43
I23
tp1126
I1
s(I8
I51
tp1127
I1
s(I7
I37
tp1128
I1
s(I46
I0
tp1129
I1
s(I11
I46
tp1130
I1
s(I33
I29
tp1131
I1
s(I16
I51
tp1132
I1
s(I36
I62
tp1133
I1
s(I58
I15
tp1134
I1
s(I39
I35
tp1135
I1
s(I61
I18
tp1136
I1
s(I44
I46
tp1137
I1
s(I9
I20
tp1138
I1
s(I48
I41
tp1139
I1
s(I12
I7
tp1140
I1
s(I15
I10
tp1141
I1
s(I37
I25
tp1142
I1
s(I24
I2
tp1143
I1
s(I62
I19
tp1144
I1
s(I27
I31
tp1145
I1
s(I49
I14
tp1146
I1
s(I52
I13
tp1147
I1
s(I0
I59
tp1148
I1
s(I55
I16
tp1149
I1
s(I20
I54
tp1150
I1
s(I3
I22
tp1151
I1
s(I25
I37
tp1152
I100
s(I6
I1
tp1153
I1
s(I28
I54
tp1154
I1
s(I32
I49
tp1155
I1
s(I31
I27
tp1156
I1
s(I53
I42
tp1157
I1
s(I57
I47
tp1158
I1
s(I40
I17
tp1159
I1
s(I21
I17
tp1160
I1
s(I4
I63
tp1161
I1
s(I43
I12
tp1162
I1
s(I8
I58
tp1163
I1
s(I7
I34
tp1164
I1
s(I46
I11
tp1165
I1
s(I11
I39
tp1166
I100
s(I33
I22
tp1167
I1
s(I16
I42
tp1168
I100
s(I36
I37
tp1169
I1
s(I58
I22
tp1170
I1
s(I41
I54
tp1171
I1
s(I61
I43
tp1172
I1
s(I44
I37
tp1173
I1
s(I9
I29
tp1174
I1
s(I48
I32
tp1175
I1
s(I12
I62
tp1176
I1
s(I34
I15
tp1177
I1
s(I15
I19
tp1178
I1
s(I37
I2
tp1179
I1
s(I24
I9
tp1180
I1
s(I62
I26
tp1181
I1
s(I27
I20
tp1182
I1
s(I49
I7
tp1183
I1
s(I13
I25
tp1184
I1
s(I52
I20
tp1185
I1
s(I0
I50
tp1186
I1
s(I20
I61
tp1187
I1
s(I3
I31
tp1188
I1
s(I25
I46
tp1189
I1
s(I28
I13
tp1190
I1
s(I50
I30
tp1191
I1
s(I31
I0
tp1192
I1
s(I53
I51
tp1193
I1
s(I57
I48
tp1194
I1
s(I40
I24
tp1195
I1
s(I21
I26
tp1196
I1
s(I4
I38
tp1197
I1
s(I43
I5
tp1198
I1
s(I8
I33
tp1199
I1
s(I7
I27
tp1200
I1
s(I46
I18
tp1201
I1
s(I29
I42
tp1202
I1
s(I33
I47
tp1203
I1
s(I16
I33
tp1204
I100
s(I36
I44
tp1205
I1
s(I58
I17
tp1206
I1
s(I41
I63
tp1207
I1
s(I22
I11
tp1208
I1
s(I61
I36
tp1209
I1
s(I44
I28
tp1210
I1
s(I9
I6
tp1211
I1
s(I48
I39
tp1212
I1
s(I12
I53
tp1213
I1
s(I34
I6
tp1214
I1
s(I15
I24
tp1215
I1
s(I37
I11
tp1216
I1
s(I24
I16
tp1217
I1
s(I62
I29
tp1218
I1
s(I45
I59
tp1219
I1
s(I49
I56
tp1220
I1
s(I13
I18
tp1221
I1
s(I52
I19
tp1222
I1
s(I0
I9
tp1223
I1
s(I38
I26
tp1224
I1
s(I3
I4
tp1225
I1
s(I25
I55
tp1226
I1
s(I28
I4
tp1227
I1
s(I50
I25
tp1228
I1
s(I31
I9
tp1229
I1
s(I53
I60
tp1230
I1
s(I1
I46
tp1231
I1
s(I57
I57
tp1232
I1
s(I40
I31
tp1233
I1
s(I21
I35
tp1234
I100
s(I4
I45
tp1235
I1
s(I8
I40
tp1236
I1
s(I7
I16
tp1237
I1
s(I46
I21
tp1238
I1
s(I29
I35
tp1239
I1
s(I33
I32
tp1240
I1
s(I16
I24
tp1241
I1
s(I36
I43
tp1242
I1
s(I58
I24
tp1243
I1
s(I41
I32
tp1244
I1
s(I22
I2
tp1245
I1
s(I61
I61
tp1246
I1
s(I44
I27
tp1247
I1
s(I9
I15
tp1248
I1
s(I12
I44
tp1249
I1
s(I34
I1
tp1250
I1
s(I17
I63
tp1251
I1
s(I37
I52
tp1252
I1
s(I59
I11
tp1253
I1
s(I24
I23
tp1254
I1
s(I62
I4
tp1255
I1
s(I45
I52
tp1256
I1
s(I10
I22
tp1257
I1
s(I49
I49
tp1258
I1
s(I13
I11
tp1259
I1
s(I52
I26
tp1260
I1
s(I0
I0
tp1261
I1
s(I38
I29
tp1262
I1
s(I3
I13
tp1263
I1
s(I25
I56
tp1264
I1
s(I28
I3
tp1265
I1
s(I50
I16
tp1266
I1
s(I53
I5
tp1267
I1
s(I1
I39
tp1268
I1
s(I40
I6
tp1269
I1
s(I21
I44
tp1270
I1
s(I4
I20
tp1271
I1
s(I8
I47
tp1272
I1
s(I7
I9
tp1273
I1
s(I46
I28
tp1274
I1
s(I29
I60
tp1275
I1
s(I33
I57
tp1276
I1
s(I16
I31
tp1277
I100
s(I54
I44
tp1278
I1
s(I58
I35
tp1279
I1
s(I41
I41
tp1280
I1
s(I22
I5
tp1281
I1
s(I5
I51
tp1282
I1
s(I61
I54
tp1283
I1
s(I44
I18
tp1284
I1
s(I9
I48
tp1285
I1
s(I47
I7
tp1286
I1
s(I12
I43
tp1287
I100
s(I34
I24
tp1288
I1
s(I17
I48
tp1289
I1
s(I37
I61
tp1290
I1
s(I59
I0
tp1291
I1
s(I24
I30
tp1292
I100
s(I62
I15
tp1293
I1
s(I45
I45
tp1294
I1
s(I10
I17
tp1295
I1
s(I49
I42
tp1296
I1
s(I13
I4
tp1297
I1
s(I0
I7
tp1298
I1
s(I38
I20
tp1299
I1
s(I25
I1
tp1300
I1
s(I63
I20
tp1301
I1
s(I28
I26
tp1302
I1
s(I50
I11
tp1303
I1
s(I53
I14
tp1304
I1
s(I1
I56
tp1305
I1
s(I40
I13
tp1306
I1
s(I21
I53
tp1307
I1
s(I4
I19
tp1308
I1
s(I26
I32
tp1309
I100
s(I7
I6
tp1310
I1
s(I46
I39
tp1311
I1
s(I29
I53
tp1312
I1
s(I33
I50
tp1313
I1
s(I16
I22
tp1314
I1
s(I54
I39
tp1315
I1
s(I19
I3
tp1316
I1
s(I58
I42
tp1317
I1
s(I41
I18
tp1318
I1
s(I22
I28
tp1319
I100
s(I5
I60
tp1320
I1
s(I44
I9
tp1321
I1
s(I9
I57
tp1322
I1
s(I47
I12
tp1323
I1
s(I12
I34
tp1324
I1
s(I34
I19
tp1325
I1
s(I17
I41
tp1326
I100
s(I37
I38
tp1327
I1
s(I59
I25
tp1328
I1
s(I42
I51
tp1329
I1
s(I62
I54
tp1330
I1
s(I45
I38
tp1331
I1
s(I10
I24
tp1332
I1
s(I49
I35
tp1333
I1
s(I13
I61
tp1334
I1
s(I35
I16
tp1335
I1
s(I0
I30
tp1336
I1
s(I38
I15
tp1337
I1
s(I25
I10
tp1338
I1
s(I63
I29
tp1339
I1
s(I28
I17
tp1340
I1
s(I50
I2
tp1341
I1
s(I14
I36
tp1342
I1
s(I53
I23
tp1343
I1
s(I1
I49
tp1344
I1
s(I21
I62
tp1345
I1
s(I4
I26
tp1346
I1
s(I26
I43
tp1347
I100
s(I46
I46
tp1348
I1
s(I29
I14
tp1349
I1
s(I51
I33
tp1350
I1
s(I16
I13
tp1351
I1
s(I54
I62
tp1352
I1
s(I19
I8
tp1353
I1
s(I58
I53
tp1354
I1
s(I41
I27
tp1355
I1
s(I22
I23
tp1356
I1
s(I5
I37
tp1357
I1
s(I44
I0
tp1358
I1
s(I9
I34
tp1359
I1
s(I47
I21
tp1360
I1
s(I30
I55
tp1361
I1
s(I34
I42
tp1362
I1
s(I17
I34
tp1363
I1
s(I56
I3
tp1364
I1
s(I37
I47
tp1365
I1
s(I59
I30
tp1366
I1
s(I42
I58
tp1367
I1
s(I23
I12
tp1368
I1
s(I62
I57
tp1369
I1
s(I45
I31
tp1370
I1
s(I10
I3
tp1371
I1
s(I49
I36
tp1372
I1
s(I13
I54
tp1373
I1
s(I35
I25
tp1374
I1
s(I0
I21
tp1375
I1
s(I38
I6
tp1376
I1
s(I25
I19
tp1377
I1
s(I63
I26
tp1378
I1
s(I50
I61
tp1379
I1
s(I14
I47
tp1380
I1
s(I53
I16
tp1381
I1
s(I1
I10
tp1382
I1
s(I39
I29
tp1383
I1
s(I4
I1
tp1384
I1
s(I26
I50
tp1385
I1
s(I46
I49
tp1386
I1
s(I29
I7
tp1387
I1
s(I51
I38
tp1388
I1
s(I16
I4
tp1389
I1
s(I54
I49
tp1390
I1
s(I19
I17
tp1391
I1
s(I2
I43
tp1392
I1
s(I58
I60
tp1393
I1
s(I41
I28
tp1394
I1
s(I22
I46
tp1395
I1
s(I5
I46
tp1396
I1
s(I9
I43
tp1397
I1
s(I47
I18
tp1398
I1
s(I30
I62
tp1399
I1
s(I34
I37
tp1400
I1
s(I17
I27
tp1401
I1
s(I56
I10
tp1402
I1
s(I37
I40
tp1403
I1
s(I59
I23
tp1404
I1
s(I42
I37
tp1405
I1
s(I23
I5
tp1406
I1
s(I62
I32
tp1407
I1
s(I45
I24
tp1408
I1
s(I10
I10
tp1409
I1
s(I13
I47
tp1410
I1
s(I35
I30
tp1411
I1
s(I18
I58
tp1412
I1
s(I38
I57
tp1413
I1
s(I60
I14
tp1414
I1
s(I25
I20
tp1415
I1
s(I63
I3
tp1416
I1
s(I11
I25
tp1417
I1
s(I50
I52
tp1418
I1
s(I14
I54
tp1419
I1
s(I53
I25
tp1420
I1
s(I1
I3
tp1421
I1
s(I39
I26
tp1422
I1
s(I4
I8
tp1423
I1
s(I26
I61
tp1424
I1
s(I46
I56
tp1425
I1
s(I29
I0
tp1426
I1
s(I51
I47
tp1427
I1
s(I54
I8
tp1428
I1
s(I19
I22
tp1429
I1
s(I2
I34
tp1430
I1
s(I41
I5
tp1431
I1
s(I22
I33
tp1432
I100
s(I5
I23
tp1433
I1
s(I9
I44
tp1434
I1
s(I47
I27
tp1435
I1
s(I30
I33
tp1436
I1
s(I34
I60
tp1437
I1
s(I17
I28
tp1438
I100
s(I56
I17
tp1439
I1
s(I55
I43
tp1440
I1
s(I59
I44
tp1441
I1
s(I42
I44
tp1442
I1
s(I23
I2
tp1443
I1
s(I6
I62
tp1444
I1
s(I62
I43
tp1445
I1
s(I45
I17
tp1446
I1
s(I10
I53
tp1447
I1
s(I32
I10
tp1448
I1
s(I13
I40
tp1449
I100
s(I35
I7
tp1450
I1
s(I18
I53
tp1451
I1
s(I38
I48
tp1452
I1
s(I60
I5
tp1453
I1
s(I25
I29
tp1454
I100
s(I63
I8
tp1455
I1
s(I11
I30
tp1456
I100
s(I50
I47
tp1457
I1
s(I14
I57
tp1458
I1
s(I1
I4
tp1459
I1
s(I39
I19
tp1460
I1
s(I26
I4
tp1461
I1
s(I48
I25
tp1462
I1
s(I29
I25
tp1463
I1
s(I51
I52
tp1464
I1
s(I54
I3
tp1465
I1
s(I19
I31
tp1466
I100
s(I2
I61
tp1467
I1
s(I41
I14
tp1468
I1
s(I22
I56
tp1469
I1
s(I5
I16
tp1470
I1
s(I27
I47
tp1471
I1
s(I47
I32
tp1472
I1
s(I30
I40
tp1473
I1
s(I34
I55
tp1474
I1
s(I17
I21
tp1475
I1
s(I56
I24
tp1476
I1
s(I55
I32
tp1477
I1
s(I20
I6
tp1478
I1
s(I59
I37
tp1479
I1
s(I42
I23
tp1480
I1
s(I23
I27
tp1481
I1
s(I6
I49
tp1482
I1
s(I45
I10
tp1483
I1
s(I10
I60
tp1484
I1
s(I32
I1
tp1485
I1
s(I13
I33
tp1486
I100
s(I35
I12
tp1487
I1
s(I18
I44
tp1488
I1
s(I38
I43
tp1489
I1
s(I60
I28
tp1490
I1
s(I43
I60
tp1491
I1
s(I63
I49
tp1492
I1
s(I11
I23
tp1493
I1
s(I50
I38
tp1494
I1
s(I14
I0
tp1495
I1
s(I36
I21
tp1496
I1
s(I1
I29
tp1497
I1
s(I39
I8
tp1498
I1
s(I26
I15
tp1499
I1
s(I48
I16
tp1500
I1
s(I29
I18
tp1501
I1
s(I51
I61
tp1502
I1
s(I15
I35
tp1503
I1
s(I54
I26
tp1504
I1
s(I19
I36
tp1505
I1
s(I2
I52
tp1506
I1
s(I22
I51
tp1507
I1
s(I5
I25
tp1508
I1
s(I27
I36
tp1509
I1
s(I47
I41
tp1510
I1
s(I30
I19
tp1511
I1
s(I52
I36
tp1512
I1
s(I17
I14
tp1513
I1
s(I56
I31
tp1514
I1
s(I55
I57
tp1515
I1
s(I20
I13
tp1516
I1
s(I59
I58
tp1517
I1
s(I42
I30
tp1518
I1
s(I23
I16
tp1519
I1
s(I6
I40
tp1520
I1
s(I45
I3
tp1521
I1
s(I10
I39
tp1522
I1
s(I32
I24
tp1523
I1
s(I31
I48
tp1524
I1
s(I35
I53
tp1525
I1
s(I18
I39
tp1526
I100
s(I57
I0
tp1527
I1
s(I38
I34
tp1528
I1
s(I60
I27
tp1529
I1
s(I43
I53
tp1530
I1
s(I8
I17
tp1531
I1
s(I63
I62
tp1532
I1
s(I11
I12
tp1533
I1
s(I50
I33
tp1534
I1
s(I14
I11
tp1535
I1
s(I36
I28
tp1536
I1
s(I1
I22
tp1537
I1
s(I39
I1
tp1538
I1
s(I26
I22
tp1539
I1
s(I48
I23
tp1540
I1
s(I51
I2
tp1541
I1
s(I15
I40
tp1542
I100
s(I54
I29
tp1543
I1
s(I19
I45
tp1544
I1
s(I2
I15
tp1545
I1
s(I24
I32
tp1546
I100
s(I5
I2
tp1547
I1
s(I27
I61
tp1548
I1
s(I47
I54
tp1549
I1
s(I30
I26
tp1550
I1
s(I52
I35
tp1551
I1
s(I17
I7
tp1552
I1
s(I56
I38
tp1553
I1
s(I55
I54
tp1554
I1
s(I20
I20
tp1555
I1
s(I3
I52
tp1556
I1
s(I59
I51
tp1557
I1
s(I42
I25
tp1558
I1
s(I23
I41
tp1559
I100
s(I6
I35
tp1560
I1
s(I10
I46
tp1561
I1
s(I32
I31
tp1562
I1
s(I31
I57
tp1563
I1
s(I35
I58
tp1564
I1
s(I18
I30
tp1565
I100
s(I57
I9
tp1566
I1
s(I38
I37
tp1567
I1
s(I60
I18
tp1568
I1
s(I43
I42
tp1569
I1
s(I8
I24
tp1570
I1
s(I63
I39
tp1571
I1
s(I11
I5
tp1572
I1
s(I14
I18
tp1573
I1
s(I36
I27
tp1574
I1
s(I39
I62
tp1575
I1
s(I61
I13
tp1576
I1
s(I26
I17
tp1577
I1
s(I48
I14
tp1578
I1
s(I12
I28
tp1579
I100
s(I51
I11
tp1580
I1
s(I15
I49
tp1581
I1
s(I54
I20
tp1582
I1
s(I19
I50
tp1583
I1
s(I2
I6
tp1584
I1
s(I24
I39
tp1585
I100
s(I5
I11
tp1586
I1
s(I27
I50
tp1587
I1
s(I47
I63
tp1588
I1
s(I30
I29
tp1589
I1
s(I52
I42
tp1590
I1
s(I56
I45
tp1591
I1
s(I55
I15
tp1592
I1
s(I20
I19
tp1593
I1
s(I3
I61
tp1594
I1
s(I42
I0
tp1595
I1
s(I23
I38
tp1596
I100
s(I6
I26
tp1597
I1
s(I10
I41
tp1598
I1
s(I32
I22
tp1599
I1
s(I31
I38
tp1600
I1
s(I35
I35
tp1601
I1
s(I18
I25
tp1602
I1
s(I57
I18
tp1603
I1
s(I40
I54
tp1604
I1
s(I60
I41
tp1605
I1
s(I43
I35
tp1606
I1
s(I8
I31
tp1607
I1
s(I7
I57
tp1608
I1
s(I63
I44
tp1609
I1
s(I11
I58
tp1610
I1
s(I33
I9
tp1611
I1
s(I14
I21
tp1612
I1
s(I36
I2
tp1613
I1
s(I39
I55
tp1614
I1
s(I61
I6
tp1615
I1
s(I26
I24
tp1616
I1
s(I48
I5
tp1617
I1
s(I12
I27
tp1618
I1
s(I51
I16
tp1619
I1
s(I15
I62
tp1620
I1
s(I19
I59
tp1621
I1
s(I2
I1
tp1622
I1
s(I24
I46
tp1623
I1
s(I27
I11
tp1624
I1
s(I49
I26
tp1625
I1
s(I30
I4
tp1626
I1
s(I52
I49
tp1627
I1
s(I56
I52
tp1628
I1
s(I55
I4
tp1629
I1
s(I20
I26
tp1630
I1
s(I3
I34
tp1631
I1
s(I42
I11
tp1632
I1
s(I23
I63
tp1633
I1
s(I6
I29
tp1634
I1
s(I28
I42
tp1635
I1
s(I32
I45
tp1636
I1
s(I31
I47
tp1637
I1
s(I35
I40
tp1638
I1
s(I18
I16
tp1639
I1
s(I57
I27
tp1640
I1
s(I40
I61
tp1641
I1
s(I21
I5
tp1642
I1
s(I60
I32
tp1643
I1
s(I43
I24
tp1644
I1
s(I8
I6
tp1645
I1
s(I7
I54
tp1646
I1
s(I11
I51
tp1647
I1
s(I33
I2
tp1648
I1
s(I14
I28
tp1649
I100
s(I36
I9
tp1650
I1
s(I39
I44
tp1651
I1
s(I61
I31
tp1652
I1
s(I44
I57
tp1653
I1
s(I48
I60
tp1654
I1
s(I12
I18
tp1655
I1
s(I51
I25
tp1656
I1
s(I15
I7
tp1657
I1
s(I37
I22
tp1658
I1
s(I2
I24
tp1659
I1
s(I24
I53
tp1660
I1
s(I27
I0
tp1661
I1
s(I49
I19
tp1662
I1
s(I30
I15
tp1663
I1
s(I52
I56
tp1664
I1
s(I0
I46
tp1665
I1
s(I56
I59
tp1666
I1
s(I55
I29
tp1667
I1
s(I20
I33
tp1668
I100
s(I3
I43
tp1669
I1
s(I23
I52
tp1670
I1
s(I6
I20
tp1671
I1
s(I28
I33
tp1672
I1
s(I32
I36
tp1673
I1
s(I31
I20
tp1674
I1
s(I53
I39
tp1675
I1
s(I18
I11
tp1676
I1
s(I57
I28
tp1677
I1
s(I40
I36
tp1678
I1
s(I21
I14
tp1679
I1
s(I60
I63
tp1680
I1
s(I43
I17
tp1681
I1
s(I8
I13
tp1682
I1
s(I7
I47
tp1683
I1
s(I11
I40
tp1684
I100
s(I33
I27
tp1685
I1
s(I16
I61
tp1686
I1
s(I36
I48
tp1687
I1
s(I58
I5
tp1688
I1
s(I39
I37
tp1689
I1
s(I61
I24
tp1690
I1
s(I44
I48
tp1691
I1
s(I9
I18
tp1692
I1
s(I48
I51
tp1693
I1
s(I12
I9
tp1694
I1
s(I51
I30
tp1695
I1
s(I15
I12
tp1696
I1
s(I37
I31
tp1697
I1
s(I2
I19
tp1698
I1
s(I24
I60
tp1699
I1
s(I27
I25
tp1700
I1
s(I49
I20
tp1701
I1
s(I52
I7
tp1702
I1
s(I0
I37
tp1703
I1
s(I55
I26
tp1704
I1
s(I20
I40
tp1705
I100
s(I3
I16
tp1706
I1
s(I25
I35
tp1707
I100
s(I6
I15
tp1708
I1
s(I28
I56
tp1709
I1
s(I32
I59
tp1710
I1
s(I31
I29
tp1711
I1
s(I53
I32
tp1712
I1
s(I18
I2
tp1713
I1
s(I57
I37
tp1714
I1
s(I40
I43
tp1715
I1
s(I21
I23
tp1716
I1
s(I4
I49
tp1717
I1
s(I60
I54
tp1718
I1
s(I43
I22
tp1719
I1
s(I8
I52
tp1720
I1
s(I7
I36
tp1721
I1
s(I46
I1
tp1722
I1
s(I11
I33
tp1723
I100
s(I33
I28
tp1724
I1
s(I16
I52
tp1725
I1
s(I36
I63
tp1726
I1
s(I58
I12
tp1727
I1
s(I39
I34
tp1728
I1
s(I61
I17
tp1729
I1
s(I44
I47
tp1730
I1
s(I9
I27
tp1731
I1
s(I48
I42
tp1732
I1
s(I12
I0
tp1733
I1
s(I15
I21
tp1734
I1
s(I37
I24
tp1735
I1
s(I24
I3
tp1736
I1
s(I62
I16
tp1737
I1
s(I27
I30
tp1738
I1
s(I49
I13
tp1739
I1
s(I13
I31
tp1740
I100
s(I52
I14
tp1741
I1
s(I0
I60
tp1742
I1
s(I55
I19
tp1743
I1
s(I20
I55
tp1744
I1
s(I3
I25
tp1745
I1
s(I25
I36
tp1746
I100
s(I6
I6
tp1747
I1
s(I28
I55
tp1748
I1
s(I32
I50
tp1749
I1
s(I31
I26
tp1750
I1
s(I53
I41
tp1751
I1
s(I57
I46
tp1752
I1
s(I40
I18
tp1753
I1
s(I21
I16
tp1754
I1
s(I4
I56
tp1755
I1
s(I43
I15
tp1756
I1
s(I8
I59
tp1757
I1
s(I7
I29
tp1758
I1
s(I46
I8
tp1759
I1
s(I11
I38
tp1760
I100
s(I33
I21
tp1761
I1
s(I16
I43
tp1762
I100
s(I36
I38
tp1763
I1
s(I58
I23
tp1764
I1
s(I41
I53
tp1765
I1
s(I61
I42
tp1766
I1
s(I44
I38
tp1767
I1
s(I9
I28
tp1768
I1
s(I48
I33
tp1769
I1
s(I12
I63
tp1770
I1
s(I34
I12
tp1771
I1
s(I15
I18
tp1772
I1
s(I37
I1
tp1773
I1
s(I24
I10
tp1774
I1
s(I62
I27
tp1775
I1
s(I27
I23
tp1776
I1
s(I49
I6
tp1777
I1
s(I13
I24
tp1778
I1
s(I52
I21
tp1779
I1
s(I0
I51
tp1780
I1
s(I20
I62
tp1781
I1
s(I3
I30
tp1782
I1
s(I25
I45
tp1783
I1
s(I28
I14
tp1784
I1
s(I50
I31
tp1785
I1
s(I31
I3
tp1786
I1
s(I53
I50
tp1787
I1
s(I57
I55
tp1788
I1
s(I40
I25
tp1789
I1
s(I21
I25
tp1790
I1
s(I4
I39
tp1791
I1
s(I43
I4
tp1792
I1
s(I8
I34
tp1793
I1
s(I7
I26
tp1794
I1
s(I46
I19
tp1795
I1
s(I29
I41
tp1796
I1
s(I33
I46
tp1797
I1
s(I16
I34
tp1798
I1
s(I36
I45
tp1799
I1
s(I58
I30
tp1800
I1
s(I41
I62
tp1801
I1
s(I22
I8
tp1802
I1
s(I61
I35
tp1803
I1
s(I44
I29
tp1804
I1
s(I9
I5
tp1805
I1
s(I12
I54
tp1806
I1
s(I34
I7
tp1807
I1
s(I15
I27
tp1808
I1
s(I37
I10
tp1809
I1
s(I24
I17
tp1810
I1
s(I62
I2
tp1811
I1
s(I45
I58
tp1812
I1
s(I49
I63
tp1813
I1
s(I13
I17
tp1814
I1
s(I52
I28
tp1815
I1
s(I0
I10
tp1816
I1
s(I38
I27
tp1817
I1
s(I3
I7
tp1818
I1
s(I25
I54
tp1819
I1
s(I28
I5
tp1820
I1
s(I50
I22
tp1821
I1
s(I31
I8
tp1822
I1
s(I53
I59
tp1823
I1
s(I1
I45
tp1824
I1
s(I57
I56
tp1825
I1
s(I40
I0
tp1826
I1
s(I21
I34
tp1827
I100
s(I4
I46
tp1828
I1
s(I8
I41
tp1829
I1
s(I7
I19
tp1830
I1
s(I46
I26
tp1831
I1
s(I29
I34
tp1832
I1
s(I33
I39
tp1833
I1
s(I16
I25
tp1834
I1
s(I54
I42
tp1835
I1
s(I58
I25
tp1836
I1
s(I41
I39
tp1837
I1
s(I22
I3
tp1838
I1
s(I61
I60
tp1839
I1
s(I44
I20
tp1840
I1
s(I9
I14
tp1841
I1
s(I12
I45
tp1842
I1
s(I34
I30
tp1843
I1
s(I17
I62
tp1844
I1
s(I37
I51
tp1845
I1
s(I59
I10
tp1846
I1
s(I24
I24
tp1847
I1
s(I62
I5
tp1848
I1
s(I45
I51
tp1849
I1
s(I10
I23
tp1850
I1
s(I49
I48
tp1851
I1
s(I13
I10
tp1852
I1
s(I52
I27
tp1853
I1
s(I0
I1
tp1854
I1
s(I38
I18
tp1855
I1
s(I3
I12
tp1856
I1
s(I25
I63
tp1857
I1
s(I28
I28
tp1858
I1
s(I50
I17
tp1859
I1
s(I53
I4
tp1860
I1
s(I1
I38
tp1861
I1
s(I40
I7
tp1862
I1
s(I21
I43
tp1863
I100
s(I4
I21
tp1864
I1
s(I26
I38
tp1865
I100
s(I7
I8
tp1866
I1
s(I46
I29
tp1867
I1
s(I29
I59
tp1868
I1
s(I33
I56
tp1869
I1
s(I16
I16
tp1870
I1
s(I54
I45
tp1871
I1
s(I58
I32
tp1872
I1
s(I41
I40
tp1873
I1
s(I22
I26
tp1874
I1
s(I5
I50
tp1875
I1
s(I61
I53
tp1876
I1
s(I44
I19
tp1877
I1
s(I9
I55
tp1878
I1
s(I47
I6
tp1879
I1
s(I12
I36
tp1880
I1
s(I34
I25
tp1881
I1
s(I17
I55
tp1882
I1
s(I37
I60
tp1883
I1
s(I59
I3
tp1884
I1
s(I24
I31
tp1885
I100
s(I62
I12
tp1886
I1
s(I45
I44
tp1887
I1
s(I10
I30
tp1888
I1
s(I49
I41
tp1889
I1
s(I13
I3
tp1890
I1
s(I0
I24
tp1891
I1
s(I38
I21
tp1892
I1
s(I25
I0
tp1893
I1
s(I63
I23
tp1894
I1
s(I28
I27
tp1895
I1
s(I50
I8
tp1896
I1
s(I14
I34
tp1897
I1
s(I53
I13
tp1898
I1
s(I1
I63
tp1899
I1
s(I40
I14
tp1900
I1
s(I21
I52
tp1901
I1
s(I4
I28
tp1902
I1
s(I26
I33
tp1903
I100
s(I7
I1
tp1904
I1
s(I46
I36
tp1905
I1
s(I29
I52
tp1906
I1
s(I33
I49
tp1907
I1
s(I16
I23
tp1908
I1
s(I54
I36
tp1909
I1
s(I19
I2
tp1910
I1
s(I58
I43
tp1911
I1
s(I41
I17
tp1912
I1
s(I22
I29
tp1913
I100
s(I5
I59
tp1914
I1
s(I44
I10
tp1915
I1
s(I9
I56
tp1916
I1
s(I47
I15
tp1917
I1
s(I12
I35
tp1918
I1
s(I34
I16
tp1919
I1
s(I17
I40
tp1920
I100
s(I37
I37
tp1921
I1
s(I59
I24
tp1922
I1
s(I42
I48
tp1923
I1
s(I62
I55
tp1924
I1
s(I45
I37
tp1925
I1
s(I10
I25
tp1926
I1
s(I49
I34
tp1927
I1
s(I13
I60
tp1928
I1
s(I35
I19
tp1929
I1
s(I0
I31
tp1930
I1
s(I38
I12
tp1931
I1
s(I25
I9
tp1932
I1
s(I63
I28
tp1933
I1
s(I28
I18
tp1934
I1
s(I50
I3
tp1935
I1
s(I14
I37
tp1936
I1
s(I53
I22
tp1937
I1
s(I1
I48
tp1938
I1
s(I21
I61
tp1939
I1
s(I4
I27
tp1940
I1
s(I26
I40
tp1941
I100
s(I46
I47
tp1942
I1
s(I29
I13
tp1943
I1
s(I51
I32
tp1944
I1
s(I16
I14
tp1945
I1
s(I54
I63
tp1946
I1
s(I19
I11
tp1947
I1
s(I58
I50
tp1948
I1
s(I41
I26
tp1949
I1
s(I22
I20
tp1950
I1
s(I5
I36
tp1951
I1
s(I44
I1
tp1952
I1
s(I9
I33
tp1953
I1
s(I47
I20
tp1954
I1
s(I30
I52
tp1955
I1
s(I34
I43
tp1956
I1
s(I17
I33
tp1957
I100
s(I56
I4
tp1958
I1
s(I37
I46
tp1959
I1
s(I59
I17
tp1960
I1
s(I42
I59
tp1961
I1
s(I23
I15
tp1962
I1
s(I62
I62
tp1963
I1
s(I45
I30
tp1964
I1
s(I10
I0
tp1965
I1
s(I13
I53
tp1966
I1
s(I35
I24
tp1967
I1
s(I0
I22
tp1968
I1
s(I38
I7
tp1969
I1
s(I25
I18
tp1970
I1
s(I63
I5
tp1971
I1
s(I50
I58
tp1972
I1
s(I14
I44
tp1973
I1
s(I53
I31
tp1974
I1
s(I1
I9
tp1975
I1
s(I39
I28
tp1976
I1
s(I4
I2
tp1977
I1
s(I26
I51
tp1978
I1
s(I46
I54
tp1979
I1
s(I29
I6
tp1980
I1
s(I51
I41
tp1981
I1
s(I16
I5
tp1982
I1
s(I54
I54
tp1983
I1
s(I19
I16
tp1984
I1
s(I2
I40
tp1985
I1
s(I58
I61
tp1986
I1
s(I41
I3
tp1987
I1
s(I22
I47
tp1988
I1
s(I5
I45
tp1989
I1
s(I9
I42
tp1990
I1
s(I47
I29
tp1991
I1
s(I30
I63
tp1992
I1
s(I34
I34
tp1993
I1
s(I17
I26
tp1994
I1
s(I56
I11
tp1995
I1
s(I55
I45
tp1996
I1
s(I59
I22
tp1997
I1
s(I42
I34
tp1998
I1
s(I23
I4
tp1999
I1
s(I62
I33
tp2000
I1
s(I45
I23
tp2001
I1
s(I10
I11
tp2002
I1
s(I13
I46
tp2003
I1
s(I35
I1
tp2004
I1
s(I18
I59
tp2005
I1
s(I38
I62
tp2006
I1
s(I60
I15
tp2007
I1
s(I25
I27
tp2008
I1
s(I63
I2
tp2009
I1
s(I11
I24
tp2010
I1
s(I50
I53
tp2011
I1
s(I14
I55
tp2012
I1
s(I53
I24
tp2013
I1
s(I1
I2
tp2014
I1
s(I39
I21
tp2015
I1
s(I4
I9
tp2016
I1
s(I26
I58
tp2017
I1
s(I46
I57
tp2018
I1
s(I29
I31
tp2019
I1
s(I51
I46
tp2020
I1
s(I54
I9
tp2021
I1
s(I19
I25
tp2022
I1
s(I2
I35
tp2023
I1
s(I41
I4
tp2024
I1
s(I22
I38
tp2025
I100
s(I5
I22
tp2026
I1
s(I27
I41
tp2027
I1
s(I47
I26
tp2028
I1
s(I30
I38
tp2029
I1
s(I34
I61
tp2030
I1
s(I17
I19
tp2031
I1
s(I56
I18
tp2032
I1
s(I55
I42
tp2033
I1
s(I59
I47
tp2034
I1
s(I42
I45
tp2035
I1
s(I23
I29
tp2036
I100
s(I6
I63
tp2037
I1
s(I62
I40
tp2038
I1
s(I45
I16
tp2039
I1
s(I10
I50
tp2040
I1
s(I32
I11
tp2041
I1
s(I13
I39
tp2042
I100
s(I35
I6
tp2043
I1
s(I18
I50
tp2044
I1
s(I38
I49
tp2045
I1
s(I60
I6
tp2046
I1
s(I25
I28
tp2047
I100
s(I63
I11
tp2048
I1
s(I11
I17
tp2049
I1
s(I50
I44
tp2050
I1
s(I14
I62
tp2051
I1
s(I1
I27
tp2052
I1
s(I39
I18
tp2053
I1
s(I26
I5
tp2054
I1
s(I48
I26
tp2055
I1
s(I29
I24
tp2056
I1
s(I51
I55
tp2057
I1
s(I15
I37
tp2058
I1
s(I54
I0
tp2059
I1
s(I19
I30
tp2060
I100
s(I2
I58
tp2061
I1
s(I41
I13
tp2062
I1
s(I22
I57
tp2063
I1
s(I5
I31
tp2064
I1
s(I27
I46
tp2065
I1
s(I47
I35
tp2066
I1
s(I30
I41
tp2067
I1
s(I34
I52
tp2068
I1
s(I17
I20
tp2069
I1
s(I56
I25
tp2070
I1
s(I55
I35
tp2071
I1
s(I20
I7
tp2072
I1
s(I59
I36
tp2073
I1
s(I42
I20
tp2074
I1
s(I23
I26
tp2075
I1
s(I6
I54
tp2076
I1
s(I45
I9
tp2077
I1
s(I10
I61
tp2078
I1
s(I32
I2
tp2079
I1
s(I13
I32
tp2080
I100
s(I35
I15
tp2081
I1
s(I18
I45
tp2082
I1
s(I38
I40
tp2083
I1
s(I60
I29
tp2084
I1
s(I43
I63
tp2085
I1
s(I63
I48
tp2086
I1
s(I11
I22
tp2087
I1
s(I50
I39
tp2088
I1
s(I14
I1
tp2089
I1
s(I36
I22
tp2090
I1
s(I1
I28
tp2091
I1
s(I39
I11
tp2092
I1
s(I26
I12
tp2093
I1
s(I48
I17
tp2094
I1
s(I29
I17
tp2095
I1
s(I51
I60
tp2096
I1
s(I15
I34
tp2097
I1
s(I54
I27
tp2098
I1
s(I19
I39
tp2099
I100
s(I2
I53
tp2100
I1
s(I22
I48
tp2101
I1
s(I5
I24
tp2102
I1
s(I27
I39
tp2103
I1
s(I47
I40
tp2104
I1
s(I30
I16
tp2105
I1
s(I52
I37
tp2106
I1
s(I17
I13
tp2107
I1
s(I56
I32
tp2108
I1
s(I55
I56
tp2109
I1
s(I20
I14
tp2110
I1
s(I59
I61
tp2111
I1
s(I42
I31
tp2112
I1
s(I23
I19
tp2113
I1
s(I6
I41
tp2114
I1
s(I45
I2
tp2115
I1
s(I10
I36
tp2116
I1
s(I32
I25
tp2117
I1
s(I31
I51
tp2118
I1
s(I35
I52
tp2119
I1
s(I18
I36
tp2120
I1
s(I57
I7
tp2121
I1
s(I38
I35
tp2122
I1
s(I60
I20
tp2123
I1
s(I43
I52
tp2124
I1
s(I8
I18
tp2125
I1
s(I63
I57
tp2126
I1
s(I11
I15
tp2127
I1
s(I14
I8
tp2128
I1
s(I36
I29
tp2129
I1
s(I1
I21
tp2130
I1
s(I39
I0
tp2131
I1
s(I26
I23
tp2132
I1
s(I48
I8
tp2133
I1
s(I51
I5
tp2134
I1
s(I15
I43
tp2135
I100
s(I54
I18
tp2136
I1
s(I19
I44
tp2137
I1
s(I2
I12
tp2138
I1
s(I24
I33
tp2139
I100
s(I5
I1
tp2140
I1
s(I27
I60
tp2141
I1
s(I47
I49
tp2142
I1
s(I30
I27
tp2143
I1
s(I52
I44
tp2144
I1
s(I17
I6
tp2145
I1
s(I56
I39
tp2146
I1
s(I55
I49
tp2147
I1
s(I20
I21
tp2148
I1
s(I3
I55
tp2149
I1
s(I59
I50
tp2150
I1
s(I42
I6
tp2151
I1
s(I23
I40
tp2152
I100
s(I6
I32
tp2153
I1
s(I10
I47
tp2154
I1
s(I32
I16
tp2155
I1
s(I31
I56
tp2156
I1
s(I35
I61
tp2157
I1
s(I18
I31
tp2158
I100
s(I57
I8
tp2159
I1
s(I40
I48
tp2160
I1
s(I60
I19
tp2161
I1
s(I43
I45
tp2162
I1
s(I8
I25
tp2163
I1
s(I63
I38
tp2164
I1
s(I11
I4
tp2165
I1
s(I14
I19
tp2166
I1
s(I36
I4
tp2167
I1
s(I39
I57
tp2168
I1
s(I61
I12
tp2169
I1
s(I26
I30
tp2170
I100
s(I48
I15
tp2171
I1
s(I12
I29
tp2172
I100
s(I51
I10
tp2173
I1
s(I15
I48
tp2174
I1
s(I54
I21
tp2175
I1
s(I19
I53
tp2176
I1
s(I2
I7
tp2177
I1
s(I24
I40
tp2178
I100
s(I5
I10
tp2179
I1
s(I27
I53
tp2180
I1
s(I47
I62
tp2181
I1
s(I30
I2
tp2182
I1
s(I52
I43
tp2183
I1
s(I56
I46
tp2184
I1
s(I55
I14
tp2185
I1
s(I20
I28
tp2186
I100
s(I3
I60
tp2187
I1
s(I42
I1
tp2188
I1
s(I23
I33
tp2189
I100
s(I6
I27
tp2190
I1
s(I28
I44
tp2191
I1
s(I32
I23
tp2192
I1
s(I31
I33
tp2193
I1
s(I35
I34
tp2194
I1
s(I18
I22
tp2195
I1
s(I57
I17
tp2196
I1
s(I40
I55
tp2197
I1
s(I60
I42
tp2198
I1
s(I43
I34
tp2199
I1
s(I8
I0
tp2200
I1
s(I7
I56
tp2201
I1
s(I63
I47
tp2202
I1
s(I11
I61
tp2203
I1
s(I33
I8
tp2204
I1
s(I14
I26
tp2205
I1
s(I36
I3
tp2206
I1
s(I39
I54
tp2207
I1
s(I61
I5
tp2208
I1
s(I26
I25
tp2209
I1
s(I48
I6
tp2210
I1
s(I12
I20
tp2211
I1
s(I51
I19
tp2212
I1
s(I15
I57
tp2213
I1
s(I19
I58
tp2214
I1
s(I2
I30
tp2215
I1
s(I24
I47
tp2216
I1
s(I27
I10
tp2217
I1
s(I49
I25
tp2218
I1
s(I30
I5
tp2219
I1
s(I52
I50
tp2220
I1
s(I0
I40
tp2221
I1
s(I56
I53
tp2222
I1
s(I55
I7
tp2223
I1
s(I20
I27
tp2224
I1
s(I3
I37
tp2225
I1
s(I42
I8
tp2226
I1
s(I23
I62
tp2227
I1
s(I6
I18
tp2228
I1
s(I28
I43
tp2229
I1
s(I32
I46
tp2230
I1
s(I31
I46
tp2231
I1
s(I35
I43
tp2232
I1
s(I18
I17
tp2233
I1
s(I57
I26
tp2234
I1
s(I40
I62
tp2235
I1
s(I21
I4
tp2236
I1
s(I60
I33
tp2237
I1
s(I43
I27
tp2238
I1
s(I8
I7
tp2239
I1
s(I7
I49
tp2240
I1
s(I11
I50
tp2241
I1
s(I33
I1
tp2242
I1
s(I14
I29
tp2243
I100
s(I36
I10
tp2244
I1
s(I39
I47
tp2245
I1
s(I61
I30
tp2246
I1
s(I44
I58
tp2247
I1
s(I48
I61
tp2248
I1
s(I12
I19
tp2249
I1
s(I51
I24
tp2250
I1
s(I15
I6
tp2251
I1
s(I37
I21
tp2252
I1
s(I2
I25
tp2253
I1
s(I24
I54
tp2254
I1
s(I27
I3
tp2255
I1
s(I49
I18
tp2256
I1
s(I30
I12
tp2257
I1
s(I52
I57
tp2258
I1
s(I0
I47
tp2259
I1
s(I56
I60
tp2260
I1
s(I55
I28
tp2261
I1
s(I20
I34
tp2262
I1
s(I3
I42
tp2263
I1
s(I23
I55
tp2264
I1
s(I6
I21
tp2265
I1
s(I28
I34
tp2266
I1
s(I32
I37
tp2267
I1
s(I31
I23
tp2268
I1
s(I53
I38
tp2269
I1
s(I18
I8
tp2270
I1
s(I57
I35
tp2271
I1
s(I40
I37
tp2272
I1
s(I21
I13
tp2273
I1
s(I60
I56
tp2274
I1
s(I43
I16
tp2275
I1
s(I8
I14
tp2276
I1
s(I7
I46
tp2277
I1
s(I11
I43
tp2278
I100
s(I33
I26
tp2279
I1
s(I16
I62
tp2280
I1
s(I36
I49
tp2281
I1
s(I58
I2
tp2282
I1
s(I39
I36
tp2283
I1
s(I61
I23
tp2284
I1
s(I44
I49
tp2285
I1
s(I9
I17
tp2286
I1
s(I48
I52
tp2287
I1
s(I12
I10
tp2288
I1
s(I15
I15
tp2289
I1
s(I37
I30
tp2290
I1
s(I2
I16
tp2291
I1
s(I24
I61
tp2292
I1
s(I27
I24
tp2293
I1
s(I49
I11
tp2294
I1
s(I52
I0
tp2295
I1
s(I0
I38
tp2296
I1
s(I55
I21
tp2297
I1
s(I20
I41
tp2298
I100
s(I3
I19
tp2299
I1
s(I25
I34
tp2300
I100
s(I6
I12
tp2301
I1
s(I28
I57
tp2302
I1
s(I32
I60
tp2303
I1
s(I31
I28
tp2304
I1
s(I53
I47
tp2305
I1
s(I18
I3
tp2306
I1
s(I57
I36
tp2307
I1
s(I40
I44
tp2308
I1
s(I21
I22
tp2309
I1
s(I4
I50
tp2310
I1
s(I60
I55
tp2311
I1
s(I43
I9
tp2312
I1
s(I8
I53
tp2313
I1
s(I7
I39
tp2314
I1
s(I46
I6
tp2315
I1
s(I11
I32
tp2316
I100
s(I33
I19
tp2317
I1
s(I16
I53
tp2318
I1
s(I36
I56
tp2319
I1
s(I58
I13
tp2320
I1
s(I41
I51
tp2321
I1
s(I61
I16
tp2322
I1
s(I44
I40
tp2323
I1
s(I9
I26
tp2324
I1
s(I48
I43
tp2325
I1
s(I12
I1
tp2326
I1
s(I15
I20
tp2327
I1
s(I37
I7
tp2328
I1
s(I24
I4
tp2329
I1
s(I62
I17
tp2330
I1
s(I27
I17
tp2331
I1
s(I49
I12
tp2332
I1
s(I13
I30
tp2333
I100
s(I52
I15
tp2334
I1
s(I0
I61
tp2335
I1
s(I55
I18
tp2336
I1
s(I20
I48
tp2337
I1
s(I3
I24
tp2338
I1
s(I25
I43
tp2339
I100
s(I6
I7
tp2340
I1
s(I28
I48
tp2341
I1
s(I32
I51
tp2342
I1
s(I31
I5
tp2343
I1
s(I53
I40
tp2344
I1
s(I57
I45
tp2345
I1
s(I40
I19
tp2346
I1
s(I21
I31
tp2347
I100
s(I4
I57
tp2348
I1
s(I43
I14
tp2349
I1
s(I8
I60
tp2350
I1
s(I7
I28
tp2351
I1
s(I46
I9
tp2352
I1
s(I29
I47
tp2353
I1
s(I33
I20
tp2354
I1
s(I16
I44
tp2355
I1
s(I36
I39
tp2356
I1
s(I58
I20
tp2357
I1
s(I41
I52
tp2358
I1
s(I61
I41
tp2359
I1
s(I44
I39
tp2360
I1
s(I9
I3
tp2361
I1
s(I48
I34
tp2362
I1
s(I12
I56
tp2363
I1
s(I34
I13
tp2364
I1
s(I15
I29
tp2365
I100
s(I37
I0
tp2366
I1
s(I24
I11
tp2367
I1
s(I62
I24
tp2368
I1
s(I27
I22
tp2369
I1
s(I49
I5
tp2370
I1
s(I13
I23
tp2371
I1
s(I52
I22
tp2372
I1
s(I0
I52
tp2373
I1
s(I20
I63
tp2374
I1
s(I3
I1
tp2375
I1
s(I25
I44
tp2376
I1
s(I28
I15
tp2377
I1
s(I50
I28
tp2378
I1
s(I31
I2
tp2379
I1
s(I53
I49
tp2380
I1
s(I1
I43
tp2381
I1
s(I57
I54
tp2382
I1
s(I40
I26
tp2383
I1
s(I21
I24
tp2384
I1
s(I4
I32
tp2385
I1
s(I43
I7
tp2386
I1
s(I8
I35
tp2387
I1
s(I7
I21
tp2388
I1
s(I46
I16
tp2389
I1
s(I29
I40
tp2390
I1
s(I33
I45
tp2391
I1
s(I16
I35
tp2392
I1
s(I36
I46
tp2393
I1
s(I58
I31
tp2394
I1
s(I41
I61
tp2395
I1
s(I22
I9
tp2396
I1
s(I61
I34
tp2397
I1
s(I44
I30
tp2398
I1
s(I9
I4
tp2399
I1
s(I12
I55
tp2400
I1
s(I34
I4
tp2401
I1
s(I15
I26
tp2402
I1
s(I37
I9
tp2403
I1
s(I24
I18
tp2404
I1
s(I62
I3
tp2405
I1
s(I45
I57
tp2406
I1
s(I49
I62
tp2407
I1
s(I13
I16
tp2408
I1
s(I52
I29
tp2409
I1
s(I0
I11
tp2410
I1
s(I38
I24
tp2411
I1
s(I3
I6
tp2412
I1
s(I25
I53
tp2413
I1
s(I28
I6
tp2414
I1
s(I50
I23
tp2415
I1
s(I31
I11
tp2416
I1
s(I53
I58
tp2417
I1
s(I1
I44
tp2418
I1
s(I57
I63
tp2419
I1
s(I40
I1
tp2420
I1
s(I21
I33
tp2421
I100
s(I4
I47
tp2422
I1
s(I8
I42
tp2423
I1
s(I7
I18
tp2424
I1
s(I46
I27
tp2425
I1
s(I29
I33
tp2426
I1
s(I33
I38
tp2427
I1
s(I16
I26
tp2428
I1
s(I54
I43
tp2429
I1
s(I58
I38
tp2430
I1
s(I41
I38
tp2431
I1
s(I22
I0
tp2432
I1
s(I61
I59
tp2433
I1
s(I44
I21
tp2434
I1
s(I9
I13
tp2435
I1
s(I12
I46
tp2436
I1
s(I34
I31
tp2437
I1
s(I17
I61
tp2438
I1
s(I37
I50
tp2439
I1
s(I59
I13
tp2440
I1
s(I24
I25
tp2441
I1
s(I62
I10
tp2442
I1
s(I45
I50
tp2443
I1
s(I10
I20
tp2444
I1
s(I49
I55
tp2445
I1
s(I13
I9
tp2446
I1
s(I0
I2
tp2447
I1
s(I38
I19
tp2448
I1
s(I3
I15
tp2449
I1
s(I25
I62
tp2450
I1
s(I28
I29
tp2451
I1
s(I50
I14
tp2452
I1
s(I53
I3
tp2453
I1
s(I1
I37
tp2454
I1
s(I40
I8
tp2455
I1
s(I21
I42
tp2456
I100
s(I4
I22
tp2457
I1
s(I26
I39
tp2458
I100
s(I7
I11
tp2459
I1
s(I46
I34
tp2460
I1
s(I29
I58
tp2461
I1
s(I33
I63
tp2462
I1
s(I16
I17
tp2463
I1
s(I54
I34
tp2464
I1
s(I58
I33
tp2465
I1
s(I41
I47
tp2466
I1
s(I22
I27
tp2467
I1
s(I5
I49
tp2468
I1
s(I61
I52
tp2469
I1
s(I44
I12
tp2470
I1
s(I9
I54
tp2471
I1
s(I47
I1
tp2472
I1
s(I12
I37
tp2473
I1
s(I34
I22
tp2474
I1
s(I17
I54
tp2475
I1
s(I37
I59
tp2476
I1
s(I59
I2
tp2477
I1
s(I42
I54
tp2478
I1
s(I62
I13
tp2479
I1
s(I45
I43
tp2480
I1
s(I10
I31
tp2481
I1
s(I49
I40
tp2482
I1
s(I13
I2
tp2483
I1
s(I0
I25
tp2484
I1
s(I38
I10
tp2485
I1
s(I25
I7
tp2486
I1
s(I63
I22
tp2487
I1
s(I28
I20
tp2488
I1
s(I50
I9
tp2489
I1
s(I14
I35
tp2490
I1
s(I53
I12
tp2491
I1
s(I1
I62
tp2492
I1
s(I40
I15
tp2493
I1
s(I21
I51
tp2494
I1
s(I4
I29
tp2495
I1
s(I26
I46
tp2496
I1
s(I7
I0
tp2497
I1
s(I46
I37
tp2498
I1
s(I29
I51
tp2499
I1
s(I33
I48
tp2500
I1
s(I16
I8
tp2501
I1
s(I54
I37
tp2502
I1
s(I19
I5
tp2503
I1
s(I58
I40
tp2504
I1
s(I41
I16
tp2505
I1
s(I22
I18
tp2506
I1
s(I5
I58
tp2507
I1
s(I44
I11
tp2508
I1
s(I9
I63
tp2509
I1
s(I47
I14
tp2510
I1
s(I30
I50
tp2511
I1
s(I34
I17
tp2512
I1
s(I17
I47
tp2513
I1
s(I37
I36
tp2514
I1
s(I59
I27
tp2515
I1
s(I42
I49
tp2516
I1
s(I62
I52
tp2517
I1
s(I45
I36
tp2518
I1
s(I10
I6
tp2519
I1
s(I49
I33
tp2520
I1
s(I13
I59
tp2521
I1
s(I35
I18
tp2522
I1
s(I0
I16
tp2523
I1
s(I38
I13
tp2524
I1
s(I25
I8
tp2525
I1
s(I63
I31
tp2526
I1
s(I28
I19
tp2527
I1
s(I50
I0
tp2528
I1
s(I14
I42
tp2529
I100
s(I53
I21
tp2530
I1
s(I1
I55
tp2531
I1
s(I21
I60
tp2532
I1
s(I4
I4
tp2533
I1
s(I26
I41
tp2534
I100
s(I46
I44
tp2535
I1
s(I29
I12
tp2536
I1
s(I51
I35
tp2537
I1
s(I16
I15
tp2538
I1
s(I54
I60
tp2539
I1
s(I19
I10
tp2540
I1
s(I2
I46
tp2541
I1
s(I58
I51
tp2542
I1
s(I41
I25
tp2543
I1
s(I22
I21
tp2544
I1
s(I5
I35
tp2545
I1
s(I44
I2
tp2546
I1
s(I9
I32
tp2547
I1
s(I47
I23
tp2548
I1
s(I30
I53
tp2549
I1
s(I34
I40
tp2550
I1
s(I17
I32
tp2551
I100
s(I56
I5
tp2552
I1
s(I37
I45
tp2553
I1
s(I59
I16
tp2554
I1
s(I42
I56
tp2555
I1
s(I23
I14
tp2556
I1
s(I62
I63
tp2557
I1
s(I45
I29
tp2558
I1
s(I10
I1
tp2559
I1
s(I13
I52
tp2560
I1
s(I35
I27
tp2561
I1
s(I0
I23
tp2562
I1
s(I38
I4
tp2563
I1
s(I25
I17
tp2564
I1
s(I63
I4
tp2565
I1
s(I50
I59
tp2566
I1
s(I14
I45
tp2567
I1
s(I53
I30
tp2568
I1
s(I1
I8
tp2569
I1
s(I39
I31
tp2570
I1
s(I4
I3
tp2571
I1
s(I26
I48
tp2572
I1
s(I46
I55
tp2573
I1
s(I29
I5
tp2574
I1
s(I51
I40
tp2575
I1
s(I16
I6
tp2576
I1
s(I54
I55
tp2577
I1
s(I19
I19
tp2578
I1
s(I2
I41
tp2579
I1
s(I58
I58
tp2580
I1
s(I41
I2
tp2581
I1
s(I22
I44
tp2582
I1
s(I5
I44
tp2583
I1
s(I9
I41
tp2584
I1
s(I47
I28
tp2585
I1
s(I30
I60
tp2586
I1
s(I34
I35
tp2587
I1
s(I17
I25
tp2588
I1
s(I56
I12
tp2589
I1
s(I55
I44
tp2590
I1
s(I59
I41
tp2591
I1
s(I42
I35
tp2592
I1
s(I23
I7
tp2593
I1
s(I62
I38
tp2594
I1
s(I45
I22
tp2595
I1
s(I10
I8
tp2596
I1
s(I13
I45
tp2597
I1
s(I35
I0
tp2598
I1
s(I18
I56
tp2599
I1
s(I38
I63
tp2600
I1
s(I60
I8
tp2601
I1
s(I25
I26
tp2602
I1
s(I63
I13
tp2603
I1
s(I11
I27
tp2604
I1
s(I50
I50
tp2605
I1
s(I14
I52
tp2606
I1
s(I1
I1
tp2607
I1
s(I39
I20
tp2608
I1
s(I4
I10
tp2609
I1
s(I26
I59
tp2610
I1
s(I46
I62
tp2611
I1
s(I29
I30
tp2612
I1
s(I51
I49
tp2613
I1
s(I54
I14
tp2614
I1
s(I19
I24
tp2615
I1
s(I2
I32
tp2616
I1
s(I41
I11
tp2617
I1
s(I22
I39
tp2618
I100
s(I5
I21
tp2619
I1
s(I27
I40
tp2620
I1
s(I47
I37
tp2621
I1
s(I30
I39
tp2622
I1
s(I34
I58
tp2623
I1
s(I17
I18
tp2624
I1
s(I56
I19
tp2625
I1
s(I55
I37
tp2626
I1
s(I59
I46
tp2627
I1
s(I42
I42
tp2628
I1
s(I23
I28
tp2629
I100
s(I6
I60
tp2630
I1
s(I62
I41
tp2631
I1
s(I45
I15
tp2632
I1
s(I10
I51
tp2633
I1
s(I32
I12
tp2634
I1
s(I13
I38
tp2635
I100
s(I35
I9
tp2636
I1
s(I18
I51
tp2637
I1
s(I38
I54
tp2638
I1
s(I60
I7
tp2639
I1
s(I43
I57
tp2640
I1
s(I63
I10
tp2641
I1
s(I11
I16
tp2642
I1
s(I50
I45
tp2643
I1
s(I14
I63
tp2644
I1
s(I1
I26
tp2645
I1
s(I39
I13
tp2646
I1
s(I26
I2
tp2647
I1
s(I48
I27
tp2648
I1
s(I29
I23
tp2649
I1
s(I51
I54
tp2650
I1
s(I15
I36
tp2651
I1
s(I54
I1
tp2652
I1
s(I19
I33
tp2653
I100
s(I2
I59
tp2654
I1
s(I41
I12
tp2655
I1
s(I22
I62
tp2656
I1
s(I5
I30
tp2657
I1
s(I27
I33
tp2658
I1
s(I47
I34
tp2659
I1
s(I30
I46
tp2660
I1
s(I34
I53
tp2661
I1
s(I17
I11
tp2662
I1
s(I56
I26
tp2663
I1
s(I55
I34
tp2664
I1
s(I20
I0
tp2665
I1
s(I59
I39
tp2666
I1
s(I42
I21
tp2667
I1
s(I23
I21
tp2668
I1
s(I6
I55
tp2669
I1
s(I45
I8
tp2670
I1
s(I10
I58
tp2671
I1
s(I32
I3
tp2672
I1
s(I31
I53
tp2673
I1
s(I35
I14
tp2674
I1
s(I18
I42
tp2675
I100
s(I38
I41
tp2676
I1
s(I60
I30
tp2677
I1
s(I43
I62
tp2678
I1
s(I63
I51
tp2679
I1
s(I11
I9
tp2680
I1
s(I50
I36
tp2681
I1
s(I14
I6
tp2682
I1
s(I36
I23
tp2683
I1
s(I1
I19
tp2684
I1
s(I39
I10
tp2685
I1
s(I26
I13
tp2686
I1
s(I48
I18
tp2687
I1
s(I29
I16
tp2688
I1
s(I51
I63
tp2689
I1
s(I15
I45
tp2690
I1
s(I54
I24
tp2691
I1
s(I19
I38
tp2692
I100
s(I2
I50
tp2693
I1
s(I22
I49
tp2694
I1
s(I5
I7
tp2695
I1
s(I27
I38
tp2696
I1
s(I47
I43
tp2697
I1
s(I30
I17
tp2698
I1
s(I52
I38
tp2699
I1
s(I17
I12
tp2700
I1
s(I56
I33
tp2701
I1
s(I55
I59
tp2702
I1
s(I20
I15
tp2703
I1
s(I3
I49
tp2704
I1
s(I59
I60
tp2705
I1
s(I42
I28
tp2706
I1
s(I23
I18
tp2707
I1
s(I6
I46
tp2708
I1
s(I45
I1
tp2709
I1
s(I10
I37
tp2710
I1
s(I32
I26
tp2711
I1
s(I31
I50
tp2712
I1
s(I35
I55
tp2713
I1
s(I18
I37
tp2714
I1
s(I57
I6
tp2715
I1
s(I38
I32
tp2716
I1
s(I60
I21
tp2717
I1
s(I43
I55
tp2718
I1
s(I8
I19
tp2719
I1
s(I63
I56
tp2720
I1
s(I11
I14
tp2721
I1
s(I14
I9
tp2722
I1
s(I36
I30
tp2723
I1
s(I1
I20
tp2724
I1
s(I39
I3
tp2725
I1
s(I26
I20
tp2726
I1
s(I48
I9
tp2727
I1
s(I51
I4
tp2728
I1
s(I15
I42
tp2729
I100
s(I54
I19
tp2730
I1
s(I19
I47
tp2731
I1
s(I2
I13
tp2732
I1
s(I24
I34
tp2733
I100
s(I5
I0
tp2734
I1
s(I27
I63
tp2735
I1
s(I47
I48
tp2736
I1
s(I30
I24
tp2737
I1
s(I52
I45
tp2738
I1
s(I17
I5
tp2739
I1
s(I56
I40
tp2740
I1
s(I55
I48
tp2741
I1
s(I20
I22
tp2742
I1
s(I3
I54
tp2743
I1
s(I59
I53
tp2744
I1
s(I42
I7
tp2745
I1
s(I23
I43
tp2746
I100
s(I6
I33
tp2747
I1
s(I10
I44
tp2748
I1
s(I32
I17
tp2749
I1
s(I31
I59
tp2750
I1
s(I35
I60
tp2751
I1
s(I18
I28
tp2752
I100
s(I57
I15
tp2753
I1
s(I40
I49
tp2754
I1
s(I60
I44
tp2755
I1
s(I43
I44
tp2756
I1
s(I8
I26
tp2757
I1
s(I63
I33
tp2758
I1
s(I11
I7
tp2759
I1
s(I14
I16
tp2760
I1
s(I36
I5
tp2761
I1
s(I39
I56
tp2762
I1
s(I61
I11
tp2763
I1
s(I26
I31
tp2764
I100
s(I48
I0
tp2765
I1
s(I12
I30
tp2766
I100
s(I51
I13
tp2767
I1
s(I15
I51
tp2768
I1
s(I19
I52
tp2769
I1
s(I2
I4
tp2770
I1
s(I24
I41
tp2771
I100
s(I5
I9
tp2772
I1
s(I27
I52
tp2773
I1
s(I47
I57
tp2774
I1
s(I30
I3
tp2775
I1
s(I52
I52
tp2776
I1
s(I56
I47
tp2777
I1
s(I55
I9
tp2778
I1
s(I20
I29
tp2779
I100
s(I3
I63
tp2780
I1
s(I42
I14
tp2781
I1
s(I23
I32
tp2782
I100
s(I6
I24
tp2783
I1
s(I28
I45
tp2784
I1
s(I32
I40
tp2785
I1
s(I31
I32
tp2786
I1
s(I35
I37
tp2787
I1
s(I18
I23
tp2788
I1
s(I57
I16
tp2789
I1
s(I40
I56
tp2790
I1
s(I60
I43
tp2791
I1
s(I43
I37
tp2792
I1
s(I8
I1
tp2793
I1
s(I7
I59
tp2794
I1
s(I63
I46
tp2795
I1
s(I11
I60
tp2796
I1
s(I33
I15
tp2797
I1
s(I14
I27
tp2798
I1
s(I36
I12
tp2799
I1
s(I39
I49
tp2800
I1
s(I61
I4
tp2801
I1
s(I44
I60
tp2802
I1
s(I48
I7
tp2803
I1
s(I12
I21
tp2804
I1
s(I51
I18
tp2805
I1
s(I15
I56
tp2806
I1
s(I19
I61
tp2807
I1
s(I2
I31
tp2808
I1
s(I24
I48
tp2809
I1
s(I27
I13
tp2810
I1
s(I49
I24
tp2811
I1
s(I30
I10
tp2812
I1
s(I52
I51
tp2813
I1
s(I0
I41
tp2814
I1
s(I56
I54
tp2815
I1
s(I55
I6
tp2816
I1
s(I20
I36
tp2817
I1
s(I3
I36
tp2818
I1
s(I42
I9
tp2819
I1
s(I23
I57
tp2820
I1
s(I6
I19
tp2821
I1
s(I28
I36
tp2822
I1
s(I32
I47
tp2823
I1
s(I31
I41
tp2824
I1
s(I35
I42
tp2825
I1
s(I18
I14
tp2826
I1
s(I57
I25
tp2827
I1
s(I40
I63
tp2828
I1
s(I21
I3
tp2829
I1
s(I60
I34
tp2830
I1
s(I43
I26
tp2831
I1
s(I8
I8
tp2832
I1
s(I7
I48
tp2833
I1
s(I11
I53
tp2834
I1
s(I33
I0
tp2835
I1
s(I16
I56
tp2836
I1
s(I36
I11
tp2837
I1
s(I39
I46
tp2838
I1
s(I61
I29
tp2839
I1
s(I44
I59
tp2840
I1
s(I48
I62
tp2841
I1
s(I12
I12
tp2842
I1
s(I51
I27
tp2843
I1
s(I15
I1
tp2844
I1
s(I37
I20
tp2845
I1
s(I2
I22
tp2846
I1
s(I24
I55
tp2847
I1
s(I27
I2
tp2848
I1
s(I49
I17
tp2849
I1
s(I30
I13
tp2850
I1
s(I52
I58
tp2851
I1
s(I0
I32
tp2852
I1
s(I56
I61
tp2853
I1
s(I55
I31
tp2854
I1
s(I20
I35
tp2855
I1
s(I3
I45
tp2856
I1
s(I23
I54
tp2857
I1
s(I6
I10
tp2858
I1
s(I28
I35
tp2859
I1
s(I32
I38
tp2860
I1
s(I31
I22
tp2861
I1
s(I53
I37
tp2862
I1
s(I18
I9
tp2863
I1
s(I57
I34
tp2864
I1
s(I40
I38
tp2865
I1
s(I21
I12
tp2866
I1
s(I4
I52
tp2867
I1
s(I60
I57
tp2868
I1
s(I43
I19
tp2869
I1
s(I8
I15
tp2870
I1
s(I7
I41
tp2871
I1
s(I11
I42
tp2872
I100
s(I33
I25
tp2873
I1
s(I16
I63
tp2874
I1
s(I36
I50
tp2875
I1
s(I58
I3
tp2876
I1
s(I39
I39
tp2877
I1
s(I61
I22
tp2878
I1
s(I44
I50
tp2879
I1
s(I9
I16
tp2880
I1
s(I48
I53
tp2881
I1
s(I12
I11
tp2882
I1
s(I15
I14
tp2883
I1
s(I37
I29
tp2884
I1
s(I2
I17
tp2885
I1
s(I24
I62
tp2886
I1
s(I27
I27
tp2887
I1
s(I49
I10
tp2888
I1
s(I52
I1
tp2889
I1
s(I0
I39
tp2890
I1
s(I55
I20
tp2891
I1
s(I20
I42
tp2892
I100
s(I3
I18
tp2893
I1
s(I25
I33
tp2894
I100
s(I6
I13
tp2895
I1
s(I28
I58
tp2896
I1
s(I32
I61
tp2897
I1
s(I31
I31
tp2898
I1
s(I53
I46
tp2899
I1
s(I18
I0
tp2900
I1
s(I57
I43
tp2901
I1
s(I40
I45
tp2902
I1
s(I21
I21
tp2903
I1
s(I4
I51
tp2904
I1
s(I60
I48
tp2905
I1
s(I43
I8
tp2906
I1
s(I8
I54
tp2907
I1
s(I7
I38
tp2908
I1
s(I46
I7
tp2909
I1
s(I11
I35
tp2910
I1
s(I33
I18
tp2911
I1
s(I16
I54
tp2912
I1
s(I36
I57
tp2913
I1
s(I58
I10
tp2914
I1
s(I41
I50
tp2915
I1
s(I61
I47
tp2916
I1
s(I44
I41
tp2917
I1
s(I9
I25
tp2918
I1
s(I48
I44
tp2919
I1
s(I12
I2
tp2920
I1
s(I15
I23
tp2921
I1
s(I37
I6
tp2922
I1
s(I24
I5
tp2923
I1
s(I62
I22
tp2924
I1
s(I27
I16
tp2925
I1
s(I49
I3
tp2926
I1
s(I13
I29
tp2927
I100
s(I52
I8
tp2928
I1
s(I0
I62
tp2929
I1
s(I20
I49
tp2930
I1
s(I3
I27
tp2931
I1
s(I25
I42
tp2932
I100
s(I6
I4
tp2933
I1
s(I28
I49
tp2934
I1
s(I32
I52
tp2935
I1
s(I31
I4
tp2936
I1
s(I53
I55
tp2937
I1
s(I57
I44
tp2938
I1
s(I40
I20
tp2939
I1
s(I21
I30
tp2940
I100
s(I4
I58
tp2941
I1
s(I43
I1
tp2942
I1
s(I8
I61
tp2943
I1
s(I7
I31
tp2944
I1
s(I46
I14
tp2945
I1
s(I29
I46
tp2946
I1
s(I33
I43
tp2947
I1
s(I16
I45
tp2948
I1
s(I36
I32
tp2949
I1
s(I58
I21
tp2950
I1
s(I41
I59
tp2951
I1
s(I61
I40
tp2952
I1
s(I44
I32
tp2953
I1
s(I9
I2
tp2954
I1
s(I48
I35
tp2955
I1
s(I12
I57
tp2956
I1
s(I34
I10
tp2957
I1
s(I15
I28
tp2958
I100
s(I37
I15
tp2959
I1
s(I24
I12
tp2960
I1
s(I62
I25
tp2961
I1
s(I45
I63
tp2962
I1
s(I49
I4
tp2963
I1
s(I13
I22
tp2964
I1
s(I52
I23
tp2965
I1
s(I0
I53
tp2966
I1
s(I20
I56
tp2967
I1
s(I3
I0
tp2968
I1
s(I25
I51
tp2969
I1
s(I28
I8
tp2970
I1
s(I50
I29
tp2971
I1
s(I31
I13
tp2972
I1
s(I53
I48
tp2973
I1
s(I1
I42
tp2974
I1
s(I57
I53
tp2975
I1
s(I40
I27
tp2976
I1
s(I21
I39
tp2977
I100
s(I4
I33
tp2978
I1
s(I43
I6
tp2979
I1
s(I8
I36
tp2980
I1
s(I7
I20
tp2981
I1
s(I46
I17
tp2982
I1
s(I29
I39
tp2983
I1
s(I33
I44
tp2984
I1
s(I16
I36
tp2985
I1
s(I36
I47
tp2986
I1
s(I58
I28
tp2987
I1
s(I41
I60
tp2988
I1
s(I22
I14
tp2989
I1
s(I61
I33
tp2990
I1
s(I44
I31
tp2991
I1
s(I9
I11
tp2992
I1
s(I12
I48
tp2993
I1
s(I34
I5
tp2994
I1
s(I17
I59
tp2995
I1
s(I37
I8
tp2996
I1
s(I24
I19
tp2997
I1
s(I62
I0
tp2998
I1
s(I45
I56
tp2999
I1
s(I49
I61
tp3000
I1
s(I13
I15
tp3001
I1
s(I52
I30
tp3002
I1
s(I0
I12
tp3003
I1
s(I38
I25
tp3004
I1
s(I3
I9
tp3005
I1
s(I25
I52
tp3006
I1
s(I28
I7
tp3007
I1
s(I50
I20
tp3008
I1
s(I31
I10
tp3009
I1
s(I53
I57
tp3010
I1
s(I1
I35
tp3011
I1
s(I57
I62
tp3012
I1
s(I40
I2
tp3013
I1
s(I21
I32
tp3014
I100
s(I4
I40
tp3015
I1
s(I8
I43
tp3016
I1
s(I7
I13
tp3017
I1
s(I46
I24
tp3018
I1
s(I29
I32
tp3019
I1
s(I33
I37
tp3020
I1
s(I16
I27
tp3021
I1
s(I54
I40
tp3022
I1
s(I58
I39
tp3023
I1
s(I41
I37
tp3024
I1
s(I22
I1
tp3025
I1
s(I5
I55
tp3026
I1
s(I61
I58
tp3027
I1
s(I44
I22
tp3028
I1
s(I9
I12
tp3029
I1
s(I12
I47
tp3030
I1
s(I34
I28
tp3031
I1
s(I17
I60
tp3032
I1
s(I37
I49
tp3033
I1
s(I59
I12
tp3034
I1
s(I24
I26
tp3035
I1
s(I62
I11
tp3036
I1
s(I45
I49
tp3037
I1
s(I10
I21
tp3038
I1
s(I49
I54
tp3039
I1
s(I13
I8
tp3040
I1
s(I0
I3
tp3041
I1
s(I38
I16
tp3042
I1
s(I3
I14
tp3043
I1
s(I25
I61
tp3044
I1
s(I28
I30
tp3045
I1
s(I50
I15
tp3046
I1
s(I53
I2
tp3047
I1
s(I1
I36
tp3048
I1
s(I40
I9
tp3049
I1
s(I21
I41
tp3050
I100
s(I4
I23
tp3051
I1
s(I26
I36
tp3052
I100
s(I7
I10
tp3053
I1
s(I46
I35
tp3054
I1
s(I29
I57
tp3055
I1
s(I33
I62
tp3056
I1
s(I16
I18
tp3057
I1
s(I54
I35
tp3058
I1
s(I58
I46
tp3059
I1
s(I41
I46
tp3060
I1
s(I22
I24
tp3061
I1
s(I5
I48
tp3062
I1
s(I61
I51
tp3063
I1
s(I44
I13
tp3064
I1
s(I9
I53
tp3065
I1
s(I47
I0
tp3066
I1
s(I12
I38
tp3067
I100
s(I34
I23
tp3068
I1
s(I17
I53
tp3069
I1
s(I37
I58
tp3070
I1
s(I59
I5
tp3071
I1
s(I42
I55
tp3072
I1
s(I62
I50
tp3073
I1
s(I45
I42
tp3074
I1
s(I10
I28
tp3075
I1
s(I49
I47
tp3076
I1
s(I13
I1
tp3077
I1
s(I0
I26
tp3078
I1
s(I38
I11
tp3079
I1
s(I25
I6
tp3080
I1
s(I63
I17
tp3081
I1
s(I28
I21
tp3082
I1
s(I50
I6
tp3083
I1
s(I14
I32
tp3084
I100
s(I53
I11
tp3085
I1
s(I1
I61
tp3086
I1
s(I21
I50
tp3087
I1
s(I4
I30
tp3088
I1
s(I26
I47
tp3089
I1
s(I7
I3
tp3090
I1
s(I46
I42
tp3091
I1
s(I29
I50
tp3092
I1
s(I33
I55
tp3093
I1
s(I16
I9
tp3094
I1
s(I54
I58
tp3095
I1
s(I19
I4
tp3096
I1
s(I58
I41
tp3097
I1
s(I41
I23
tp3098
I1
s(I22
I19
tp3099
I1
s(I5
I57
tp3100
I1
s(I44
I4
tp3101
I1
s(I9
I62
tp3102
I1
s(I47
I9
tp3103
I1
s(I30
I51
tp3104
I1
s(I34
I46
tp3105
I1
s(I17
I46
tp3106
I1
s(I37
I35
tp3107
I1
s(I59
I26
tp3108
I1
s(I42
I62
tp3109
I1
s(I62
I53
tp3110
I1
s(I45
I35
tp3111
I1
s(I10
I7
tp3112
I1
s(I49
I32
tp3113
I1
s(I13
I58
tp3114
I1
s(I35
I21
tp3115
I1
s(I0
I17
tp3116
I1
s(I38
I2
tp3117
I1
s(I25
I15
tp3118
I1
s(I63
I30
tp3119
I1
s(I50
I1
tp3120
I1
s(I14
I43
tp3121
I100
s(I53
I20
tp3122
I1
s(I1
I54
tp3123
I1
s(I21
I59
tp3124
I1
s(I4
I5
tp3125
I1
s(I26
I54
tp3126
I1
s(I46
I45
tp3127
I1
s(I29
I11
tp3128
I1
s(I51
I34
tp3129
I1
s(I16
I0
tp3130
I1
s(I54
I61
tp3131
I1
s(I19
I13
tp3132
I1
s(I2
I47
tp3133
I1
s(I58
I48
tp3134
I1
s(I41
I24
tp3135
I1
s(I22
I42
tp3136
I100
s(I5
I34
tp3137
I1
s(I44
I3
tp3138
I1
s(I9
I39
tp3139
I1
s(I47
I22
tp3140
I1
s(I30
I58
tp3141
I1
s(I34
I41
tp3142
I1
s(I17
I39
tp3143
I100
s(I56
I6
tp3144
I1
s(I37
I44
tp3145
I1
s(I59
I19
tp3146
I1
s(I42
I57
tp3147
I1
s(I23
I9
tp3148
I1
s(I62
I60
tp3149
I1
s(I45
I28
tp3150
I1
s(I10
I14
tp3151
I1
s(I13
I51
tp3152
I1
s(I35
I26
tp3153
I1
s(I18
I62
tp3154
I1
s(I38
I5
tp3155
I1
s(I25
I16
tp3156
I1
s(I63
I7
tp3157
I1
s(I50
I56
tp3158
I1
s(I14
I50
tp3159
I1
s(I53
I29
tp3160
I1
s(I1
I15
tp3161
I1
s(I39
I30
tp3162
I1
s(I4
I12
tp3163
I1
s(I26
I49
tp3164
I1
s(I46
I52
tp3165
I1
s(I29
I4
tp3166
I1
s(I51
I43
tp3167
I1
s(I16
I7
tp3168
I1
s(I54
I52
tp3169
I1
s(I19
I18
tp3170
I1
s(I2
I38
tp3171
I1
s(I58
I59
tp3172
I1
s(I41
I1
tp3173
I1
s(I22
I45
tp3174
I1
s(I5
I43
tp3175
I1
s(I9
I40
tp3176
I1
s(I47
I31
tp3177
I1
s(I30
I61
tp3178
I1
s(I34
I32
tp3179
I1
s(I17
I24
tp3180
I1
s(I56
I13
tp3181
I1
s(I55
I47
tp3182
I1
s(I59
I40
tp3183
I1
s(I42
I32
tp3184
I1
s(I23
I6
tp3185
I1
s(I6
I58
tp3186
I1
s(I62
I39
tp3187
I1
s(I45
I21
tp3188
I1
s(I10
I9
tp3189
I1
s(I13
I44
tp3190
I1
s(I35
I3
tp3191
I1
s(I18
I57
tp3192
I1
s(I38
I60
tp3193
I1
s(I60
I9
tp3194
I1
s(I25
I25
tp3195
I1
s(I63
I12
tp3196
I1
s(I11
I26
tp3197
I1
s(I50
I51
tp3198
I1
s(I14
I53
tp3199
I1
s(I1
I0
tp3200
I1
s(I39
I23
tp3201
I1
s(I4
I11
tp3202
I1
s(I26
I56
tp3203
I1
s(I46
I63
tp3204
I1
s(I29
I29
tp3205
I1
s(I51
I48
tp3206
I1
s(I54
I15
tp3207
I1
s(I19
I27
tp3208
I1
s(I2
I33
tp3209
I1
s(I41
I10
tp3210
I1
s(I22
I36
tp3211
I100
s(I5
I20
tp3212
I1
s(I27
I43
tp3213
I1
s(I47
I36
tp3214
I1
s(I30
I36
tp3215
I1
s(I34
I59
tp3216
I1
s(I17
I17
tp3217
I1
s(I56
I20
tp3218
I1
s(I55
I36
tp3219
I1
s(I59
I33
tp3220
I1
s(I42
I43
tp3221
I1
s(I23
I31
tp3222
I100
s(I6
I61
tp3223
I1
s(I62
I46
tp3224
I1
s(I45
I14
tp3225
I1
s(I10
I48
tp3226
I1
s(I32
I13
tp3227
I1
s(I13
I37
tp3228
I1
s(I35
I8
tp3229
I1
s(I18
I48
tp3230
I1
s(I38
I55
tp3231
I1
s(I60
I0
tp3232
I1
s(I43
I56
tp3233
I1
s(I63
I53
tp3234
I1
s(I11
I19
tp3235
I1
s(I50
I42
tp3236
I1
s(I14
I60
tp3237
I1
s(I1
I25
tp3238
I1
s(I39
I12
tp3239
I1
s(I26
I3
tp3240
I1
s(I48
I28
tp3241
I1
s(I29
I22
tp3242
I1
s(I51
I57
tp3243
I1
s(I15
I39
tp3244
I100
s(I54
I6
tp3245
I1
s(I19
I32
tp3246
I100
s(I2
I56
tp3247
I1
s(I22
I63
tp3248
I1
s(I5
I29
tp3249
I1
s(I27
I32
tp3250
I1
s(I47
I45
tp3251
I1
s(I30
I47
tp3252
I1
s(I34
I50
tp3253
I1
s(I17
I10
tp3254
I1
s(I56
I27
tp3255
I1
s(I55
I61
tp3256
I1
s(I20
I1
tp3257
I1
s(I59
I38
tp3258
I1
s(I42
I18
tp3259
I1
s(I23
I20
tp3260
I1
s(I6
I52
tp3261
I1
s(I45
I7
tp3262
I1
s(I10
I59
tp3263
I1
s(I32
I4
tp3264
I1
s(I31
I52
tp3265
I1
s(I35
I49
tp3266
I1
s(I18
I43
tp3267
I100
s(I38
I46
tp3268
I1
s(I60
I31
tp3269
I1
s(I43
I49
tp3270
I1
s(I63
I50
tp3271
I1
s(I11
I8
tp3272
I1
s(I50
I37
tp3273
I1
s(I14
I7
tp3274
I1
s(I36
I16
tp3275
I1
s(I1
I18
tp3276
I1
s(I39
I5
tp3277
I1
s(I26
I10
tp3278
I1
s(I48
I19
tp3279
I1
s(I51
I62
tp3280
I1
s(I15
I44
tp3281
I1
s(I54
I25
tp3282
I1
s(I19
I41
tp3283
I100
s(I2
I51
tp3284
I1
s(I22
I54
tp3285
I1
s(I5
I6
tp3286
I1
s(I27
I57
tp3287
I1
s(I47
I42
tp3288
I1
s(I30
I22
tp3289
I1
s(I52
I39
tp3290
I1
s(I17
I3
tp3291
I1
s(I56
I34
tp3292
I1
s(I55
I58
tp3293
I1
s(I20
I8
tp3294
I1
s(I3
I48
tp3295
I1
s(I59
I63
tp3296
I1
s(I42
I29
tp3297
I1
s(I23
I45
tp3298
I1
s(I6
I47
tp3299
I1
s(I45
I0
tp3300
I1
s(I10
I34
tp3301
I1
s(I32
I27
tp3302
I1
s(I31
I61
tp3303
I1
s(I35
I54
tp3304
I1
s(I18
I34
tp3305
I1
s(I57
I5
tp3306
I1
s(I38
I33
tp3307
I1
s(I60
I22
tp3308
I1
s(I43
I54
tp3309
I1
s(I8
I20
tp3310
I1
s(I63
I59
tp3311
I1
s(I11
I1
tp3312
I1
s(I14
I14
tp3313
I1
s(I36
I31
tp3314
I1
s(I39
I2
tp3315
I1
s(I26
I21
tp3316
I1
s(I48
I10
tp3317
I1
s(I51
I7
tp3318
I1
s(I15
I53
tp3319
I1
s(I54
I16
tp3320
I1
s(I19
I46
tp3321
I1
s(I2
I10
tp3322
I1
s(I24
I35
tp3323
I100
s(I5
I15
tp3324
I1
s(I27
I62
tp3325
I1
s(I47
I51
tp3326
I1
s(I30
I25
tp3327
I1
s(I52
I46
tp3328
I1
s(I17
I4
tp3329
I1
s(I56
I41
tp3330
I1
s(I55
I51
tp3331
I1
s(I20
I23
tp3332
I1
s(I3
I57
tp3333
I1
s(I59
I52
tp3334
I1
s(I42
I4
tp3335
I1
s(I23
I42
tp3336
I100
s(I6
I38
tp3337
I1
s(I10
I45
tp3338
I1
s(I32
I18
tp3339
I1
s(I31
I58
tp3340
I1
s(I35
I63
tp3341
I1
s(I18
I29
tp3342
I100
s(I57
I14
tp3343
I1
s(I40
I50
tp3344
I1
s(I60
I45
tp3345
I1
s(I43
I47
tp3346
I1
s(I8
I27
tp3347
I1
s(I7
I61
tp3348
I1
s(I63
I32
tp3349
I1
s(I11
I6
tp3350
I1
s(I14
I17
tp3351
I1
s(I36
I6
tp3352
I1
s(I39
I59
tp3353
I1
s(I61
I10
tp3354
I1
s(I26
I28
tp3355
I100
s(I48
I1
tp3356
I1
s(I12
I31
tp3357
I100
s(I51
I12
tp3358
I1
s(I15
I50
tp3359
I1
s(I19
I55
tp3360
I1
s(I2
I5
tp3361
I1
s(I24
I42
tp3362
I100
s(I5
I8
tp3363
I1
s(I27
I55
tp3364
I1
s(I47
I56
tp3365
I1
s(I30
I0
tp3366
I1
s(I52
I53
tp3367
I1
s(I56
I48
tp3368
I1
s(I55
I8
tp3369
I1
s(I20
I30
tp3370
I100
s(I3
I62
tp3371
I1
s(I42
I15
tp3372
I1
s(I23
I35
tp3373
I100
s(I6
I25
tp3374
I1
s(I28
I46
tp3375
I1
s(I32
I41
tp3376
I1
s(I31
I35
tp3377
I1
s(I35
I36
tp3378
I1
s(I18
I20
tp3379
I1
s(I57
I23
tp3380
I1
s(I40
I57
tp3381
I1
s(I60
I36
tp3382
I1
s(I43
I36
tp3383
I1
s(I8
I2
tp3384
I1
s(I7
I58
tp3385
I1
s(I63
I41
tp3386
I1
s(I11
I63
tp3387
I1
s(I33
I14
tp3388
I1
s(I14
I24
tp3389
I1
s(I36
I13
tp3390
I1
s(I39
I48
tp3391
I1
s(I61
I3
tp3392
I1
s(I44
I61
tp3393
I1
s(I48
I56
tp3394
I1
s(I12
I22
tp3395
I1
s(I51
I21
tp3396
I1
s(I15
I59
tp3397
I1
s(I19
I60
tp3398
I1
s(I2
I28
tp3399
I1
s(I24
I49
tp3400
I1
s(I27
I12
tp3401
I1
s(I49
I31
tp3402
I1
s(I30
I11
tp3403
I1
s(I52
I60
tp3404
I1
s(I0
I42
tp3405
I1
s(I56
I55
tp3406
I1
s(I55
I1
tp3407
I1
s(I20
I37
tp3408
I1
s(I3
I39
tp3409
I1
s(I23
I56
tp3410
I1
s(I6
I16
tp3411
I1
s(I28
I37
tp3412
I1
s(I32
I32
tp3413
I1
s(I31
I40
tp3414
I1
s(I35
I45
tp3415
I1
s(I18
I15
tp3416
I1
s(I57
I24
tp3417
I1
s(I40
I32
tp3418
I1
s(I21
I2
tp3419
I1
s(I60
I35
tp3420
I1
s(I43
I29
tp3421
I1
s(I8
I9
tp3422
I1
s(I7
I51
tp3423
I1
s(I11
I52
tp3424
I1
s(I33
I7
tp3425
I1
s(I16
I57
tp3426
I1
s(I36
I52
tp3427
I1
s(I39
I41
tp3428
I1
s(I61
I28
tp3429
I1
s(I44
I52
tp3430
I1
s(I48
I63
tp3431
I1
s(I12
I13
tp3432
I1
s(I51
I26
tp3433
I1
s(I15
I0
tp3434
I1
s(I37
I19
tp3435
I1
s(I2
I23
tp3436
I1
s(I24
I56
tp3437
I1
s(I27
I5
tp3438
I1
s(I49
I16
tp3439
I1
s(I52
I59
tp3440
I1
s(I0
I33
tp3441
I1
s(I56
I62
tp3442
I1
s(I55
I30
tp3443
I1
s(I20
I44
tp3444
I1
s(I3
I44
tp3445
I1
s(I23
I49
tp3446
I1
s(I6
I11
tp3447
I1
s(I28
I60
tp3448
I1
s(I32
I39
tp3449
I1
s(I31
I17
tp3450
I1
s(I53
I36
tp3451
I1
s(I18
I6
tp3452
I1
s(I57
I33
tp3453
I1
s(I40
I39
tp3454
I1
s(I21
I11
tp3455
I1
s(I4
I53
tp3456
I1
s(I60
I58
tp3457
I1
s(I43
I18
tp3458
I1
s(I8
I48
tp3459
I1
s(I7
I40
tp3460
I1
s(I11
I45
tp3461
I1
s(I33
I24
tp3462
I1
s(I16
I48
tp3463
I1
s(I36
I51
tp3464
I1
s(I58
I0
tp3465
I1
s(I39
I38
tp3466
I1
s(I61
I21
tp3467
I1
s(I44
I51
tp3468
I1
s(I9
I23
tp3469
I1
s(I48
I54
tp3470
I1
s(I12
I4
tp3471
I1
s(I15
I9
tp3472
I1
s(I37
I28
tp3473
I1
s(I24
I63
tp3474
I1
s(I27
I26
tp3475
I1
s(I49
I9
tp3476
I1
s(I52
I2
tp3477
I1
s(I0
I56
tp3478
I1
s(I55
I23
tp3479
I1
s(I20
I43
tp3480
I100
s(I3
I21
tp3481
I1
s(I25
I32
tp3482
I100
s(I6
I2
tp3483
I1
s(I28
I59
tp3484
I1
s(I32
I62
tp3485
I1
s(I31
I30
tp3486
I1
s(I53
I45
tp3487
I1
s(I18
I1
tp3488
I1
s(I57
I42
tp3489
I1
s(I40
I46
tp3490
I1
s(I21
I20
tp3491
I1
s(I4
I60
tp3492
I1
s(I60
I49
tp3493
I1
s(I43
I11
tp3494
I1
s(I8
I55
tp3495
I1
s(I7
I33
tp3496
I1
s(I46
I4
tp3497
I1
s(I11
I34
tp3498
I1
s(I33
I17
tp3499
I1
s(I16
I55
tp3500
I1
s(I36
I58
tp3501
I1
s(I58
I11
tp3502
I1
s(I41
I49
tp3503
I1
s(I61
I46
tp3504
I1
s(I44
I42
tp3505
I1
s(I9
I24
tp3506
I1
s(I48
I45
tp3507
I1
s(I12
I3
tp3508
I1
s(I15
I22
tp3509
I1
s(I37
I5
tp3510
I1
s(I24
I6
tp3511
I1
s(I62
I23
tp3512
I1
s(I27
I19
tp3513
I1
s(I49
I2
tp3514
I1
s(I13
I28
tp3515
I100
s(I52
I9
tp3516
I1
s(I0
I63
tp3517
I1
s(I20
I50
tp3518
I1
s(I3
I26
tp3519
I1
s(I25
I41
tp3520
I100
s(I6
I5
tp3521
I1
s(I28
I50
tp3522
I1
s(I32
I53
tp3523
I1
s(I31
I7
tp3524
I1
s(I53
I54
tp3525
I1
s(I57
I51
tp3526
I1
s(I40
I21
tp3527
I1
s(I21
I29
tp3528
I100
s(I4
I59
tp3529
I1
s(I43
I0
tp3530
I1
s(I8
I62
tp3531
I1
s(I7
I30
tp3532
I1
s(I46
I15
tp3533
I1
s(I29
I45
tp3534
I1
s(I33
I42
tp3535
I1
s(I16
I46
tp3536
I1
s(I36
I33
tp3537
I1
s(I58
I18
tp3538
I1
s(I41
I58
tp3539
I1
s(I61
I39
tp3540
I1
s(I44
I33
tp3541
I1
s(I9
I1
tp3542
I1
s(I48
I36
tp3543
I1
s(I12
I58
tp3544
I1
s(I34
I11
tp3545
I1
s(I15
I31
tp3546
I100
s(I37
I14
tp3547
I1
s(I24
I13
tp3548
I1
s(I62
I30
tp3549
I1
s(I45
I62
tp3550
I1
s(I49
I59
tp3551
I1
s(I13
I21
tp3552
I1
s(I52
I16
tp3553
I1
s(I0
I54
tp3554
I1
s(I20
I57
tp3555
I1
s(I3
I3
tp3556
I1
s(I25
I50
tp3557
I1
s(I28
I9
tp3558
I1
s(I50
I26
tp3559
I1
s(I31
I12
tp3560
I1
s(I53
I63
tp3561
I1
s(I1
I41
tp3562
I1
s(I57
I52
tp3563
I1
s(I40
I28
tp3564
I1
s(I21
I38
tp3565
I100
s(I4
I34
tp3566
I1
s(I8
I37
tp3567
I1
s(I7
I23
tp3568
I1
s(I46
I22
tp3569
I1
s(I29
I38
tp3570
I1
s(I33
I35
tp3571
I1
s(I16
I37
tp3572
I1
s(I36
I40
tp3573
I1
s(I58
I29
tp3574
I1
s(I41
I35
tp3575
I1
s(I22
I15
tp3576
I1
s(I61
I32
tp3577
I1
s(I44
I24
tp3578
I1
s(I9
I10
tp3579
I1
s(I12
I49
tp3580
I1
s(I34
I2
tp3581
I1
s(I17
I58
tp3582
I1
s(I37
I55
tp3583
I1
s(I24
I20
tp3584
I1
s(I62
I1
tp3585
I1
s(I45
I55
tp3586
I1
s(I49
I60
tp3587
I1
s(I13
I14
tp3588
I1
s(I52
I31
tp3589
I1
s(I0
I13
tp3590
I1
s(I38
I30
tp3591
I1
s(I3
I8
tp3592
I1
s(I25
I59
tp3593
I1
s(I28
I0
tp3594
I1
s(I50
I21
tp3595
I1
s(I53
I56
tp3596
I1
s(I1
I34
tp3597
I1
s(I57
I61
tp3598
I1
s(I40
I3
tp3599
I1
s(I21
I47
tp3600
I1
s(I4
I41
tp3601
I1
s(I8
I44
tp3602
I1
s(I7
I12
tp3603
I1
s(I46
I25
tp3604
I1
s(I29
I63
tp3605
I1
s(I33
I36
tp3606
I1
s(I16
I28
tp3607
I100
s(I54
I41
tp3608
I1
s(I58
I36
tp3609
I1
s(I41
I36
tp3610
I1
s(I22
I6
tp3611
I1
s(I5
I54
tp3612
I1
s(I61
I57
tp3613
I1
s(I44
I23
tp3614
I1
s(I9
I51
tp3615
I1
s(I12
I40
tp3616
I100
s(I34
I29
tp3617
I1
s(I17
I51
tp3618
I1
s(I37
I48
tp3619
I1
s(I59
I15
tp3620
I1
s(I24
I27
tp3621
I1
s(I62
I8
tp3622
I1
s(I45
I48
tp3623
I1
s(I10
I18
tp3624
I1
s(I49
I53
tp3625
I1
s(I13
I7
tp3626
I1
s(I0
I4
tp3627
I1
s(I38
I17
tp3628
I1
s(I25
I60
tp3629
I1
s(I28
I31
tp3630
I1
s(I50
I12
tp3631
I1
s(I53
I1
tp3632
I1
s(I1
I59
tp3633
I1
s(I40
I10
tp3634
I1
s(I21
I40
tp3635
I100
s(I4
I16
tp3636
I1
s(I26
I37
tp3637
I100
s(I7
I5
tp3638
I1
s(I46
I32
tp3639
I1
s(I29
I56
tp3640
I1
s(I33
I61
tp3641
I1
s(I16
I19
tp3642
I1
s(I54
I32
tp3643
I1
s(I58
I47
tp3644
I1
s(I41
I45
tp3645
I1
s(I22
I25
tp3646
I1
s(I5
I63
tp3647
I1
s(I61
I50
tp3648
I1
s(I44
I14
tp3649
I1
s(I9
I52
tp3650
I1
s(I47
I3
tp3651
I1
s(I12
I39
tp3652
I100
s(I34
I20
tp3653
I1
s(I17
I52
tp3654
I1
s(I37
I57
tp3655
I1
s(I59
I4
tp3656
I1
s(I42
I52
tp3657
I1
s(I62
I51
tp3658
I1
s(I45
I41
tp3659
I1
s(I10
I29
tp3660
I1
s(I49
I46
tp3661
I1
s(I13
I0
tp3662
I1
s(I0
I27
tp3663
I1
s(I38
I8
tp3664
I1
s(I25
I5
tp3665
I1
s(I63
I16
tp3666
I1
s(I28
I22
tp3667
I1
s(I50
I7
tp3668
I1
s(I14
I33
tp3669
I100
s(I53
I10
tp3670
I1
s(I1
I60
tp3671
I1
s(I21
I49
tp3672
I1
s(I4
I31
tp3673
I1
s(I26
I44
tp3674
I1
s(I7
I2
tp3675
I1
s(I46
I43
tp3676
I1
s(I29
I49
tp3677
I1
s(I33
I54
tp3678
I1
s(I16
I10
tp3679
I1
s(I54
I59
tp3680
I1
s(I19
I7
tp3681
I1
s(I58
I54
tp3682
I1
s(I41
I22
tp3683
I1
s(I22
I16
tp3684
I1
s(I5
I56
tp3685
I1
s(I44
I5
tp3686
I1
s(I9
I61
tp3687
I1
s(I47
I8
tp3688
I1
s(I30
I48
tp3689
I1
s(I34
I47
tp3690
I1
s(I17
I45
tp3691
I1
s(I56
I0
tp3692
I1
s(I37
I34
tp3693
I1
s(I59
I29
tp3694
I1
s(I42
I63
tp3695
I1
s(I62
I58
tp3696
I1
s(I45
I34
tp3697
I1
s(I10
I4
tp3698
I1
s(I49
I39
tp3699
I1
s(I13
I57
tp3700
I1
s(I35
I20
tp3701
I1
s(I0
I18
tp3702
I1
s(I38
I3
tp3703
I1
s(I25
I14
tp3704
I1
s(I63
I25
tp3705
I1
s(I50
I62
tp3706
I1
s(I14
I40
tp3707
I100
s(I53
I19
tp3708
I1
s(I1
I53
tp3709
I1
s(I21
I58
tp3710
I1
s(I4
I6
tp3711
I1
s(I26
I55
tp3712
I1
s(I46
I50
tp3713
I1
s(I29
I10
tp3714
I1
s(I51
I37
tp3715
I1
s(I16
I1
tp3716
I1
s(I54
I50
tp3717
I1
s(I19
I12
tp3718
I1
s(I2
I44
tp3719
I1
s(I58
I49
tp3720
I1
s(I41
I31
tp3721
I1
s(I22
I43
tp3722
I100
s(I5
I33
tp3723
I1
s(I9
I38
tp3724
I1
s(I47
I17
tp3725
I1
s(I30
I59
tp3726
I1
s(I34
I38
tp3727
I1
s(I17
I38
tp3728
I100
s(I56
I7
tp3729
I1
s(I37
I43
tp3730
I1
s(I59
I18
tp3731
I1
s(I42
I38
tp3732
I1
s(I23
I8
tp3733
I1
s(I62
I61
tp3734
I1
s(I45
I27
tp3735
I1
s(I10
I15
tp3736
I1
s(I13
I50
tp3737
I1
s(I35
I29
tp3738
I1
s(I18
I63
tp3739
I1
s(I38
I58
tp3740
I1
s(I25
I23
tp3741
I1
s(I63
I6
tp3742
I1
s(I50
I57
tp3743
I1
s(I14
I51
tp3744
I1
s(I53
I28
tp3745
I1
s(I1
I14
tp3746
I1
s(I39
I25
tp3747
I1
s(I4
I13
tp3748
I1
s(I26
I62
tp3749
I1
s(I46
I53
tp3750
I1
s(I29
I3
tp3751
I1
s(I51
I42
tp3752
I1
s(I54
I53
tp3753
I1
s(I19
I21
tp3754
I1
s(I2
I39
tp3755
I1
s(I58
I56
tp3756
I1
s(I41
I0
tp3757
I1
s(I22
I34
tp3758
I100
s(I5
I42
tp3759
I1
s(I9
I47
tp3760
I1
s(I47
I30
tp3761
I1
s(I30
I34
tp3762
I1
s(I34
I33
tp3763
I1
s(I17
I31
tp3764
I100
s(I56
I14
tp3765
I1
s(I55
I46
tp3766
I1
s(I59
I43
tp3767
I1
s(I42
I33
tp3768
I1
s(I23
I1
tp3769
I1
s(I6
I59
tp3770
I1
s(I62
I36
tp3771
I1
s(I45
I20
tp3772
I1
s(I10
I54
tp3773
I1
s(I13
I43
tp3774
I100
s(I35
I2
tp3775
I1
s(I18
I54
tp3776
I1
s(I38
I61
tp3777
I1
s(I60
I10
tp3778
I1
s(I25
I24
tp3779
I1
s(I63
I15
tp3780
I1
s(I11
I29
tp3781
I100
s(I50
I48
tp3782
I1
s(I14
I58
tp3783
I1
s(I1
I7
tp3784
I1
s(I39
I22
tp3785
I1
s(I26
I57
tp3786
I1
s(I46
I60
tp3787
I1
s(I29
I28
tp3788
I1
s(I51
I51
tp3789
I1
s(I54
I12
tp3790
I1
s(I19
I26
tp3791
I1
s(I2
I62
tp3792
I1
s(I41
I9
tp3793
I1
s(I22
I37
tp3794
I100
s(I5
I19
tp3795
I1
s(I27
I42
tp3796
I1
s(I47
I39
tp3797
I1
s(I30
I37
tp3798
I1
s(I34
I56
tp3799
I1
s(I17
I16
tp3800
I1
s(I56
I21
tp3801
I1
s(I55
I39
tp3802
I1
s(I59
I32
tp3803
I1
s(I42
I40
tp3804
I1
s(I23
I30
tp3805
I100
s(I6
I50
tp3806
I1
s(I62
I47
tp3807
I1
s(I45
I13
tp3808
I1
s(I10
I49
tp3809
I1
s(I32
I14
tp3810
I1
s(I13
I36
tp3811
I1
s(I35
I11
tp3812
I1
s(I18
I49
tp3813
I1
s(I38
I52
tp3814
I1
s(I60
I1
tp3815
I1
s(I43
I59
tp3816
I1
s(I63
I52
tp3817
I1
s(I11
I18
tp3818
I1
s(I50
I43
tp3819
I1
s(I14
I61
tp3820
I1
s(I1
I24
tp3821
I1
s(I39
I15
tp3822
I1
s(I26
I0
tp3823
I1
s(I48
I29
tp3824
I1
s(I29
I21
tp3825
I1
s(I51
I56
tp3826
I1
s(I15
I38
tp3827
I100
s(I54
I7
tp3828
I1
s(I19
I35
tp3829
I1
s(I2
I57
tp3830
I1
s(I22
I60
tp3831
I1
s(I5
I28
tp3832
I1
s(I27
I35
tp3833
I1
s(I47
I44
tp3834
I1
s(I30
I44
tp3835
I1
s(I34
I51
tp3836
I1
s(I17
I9
tp3837
I1
s(I56
I28
tp3838
I1
s(I55
I60
tp3839
I1
s(I20
I2
tp3840
I1
s(I59
I57
tp3841
I1
s(I42
I19
tp3842
I1
s(I23
I23
tp3843
I1
s(I6
I53
tp3844
I1
s(I45
I6
tp3845
I1
s(I10
I56
tp3846
I1
s(I32
I5
tp3847
I1
s(I31
I55
tp3848
I1
s(I35
I48
tp3849
I1
s(I18
I40
tp3850
I100
s(I57
I3
tp3851
I1
s(I38
I47
tp3852
I1
s(I60
I24
tp3853
I1
s(I43
I48
tp3854
I1
s(I63
I61
tp3855
I1
s(I11
I11
tp3856
I1
s(I50
I34
tp3857
I1
s(I14
I4
tp3858
I1
s(I36
I17
tp3859
I1
s(I1
I17
tp3860
I1
s(I39
I4
tp3861
I1
s(I26
I11
tp3862
I1
s(I48
I20
tp3863
I1
s(I51
I1
tp3864
I1
s(I15
I47
tp3865
I1
s(I54
I30
tp3866
I1
s(I19
I40
tp3867
I100
s(I2
I48
tp3868
I1
s(I22
I55
tp3869
I1
s(I5
I5
tp3870
I1
s(I27
I56
tp3871
I1
s(I47
I53
tp3872
I1
s(I30
I23
tp3873
I1
s(I52
I32
tp3874
I1
s(I17
I2
tp3875
I1
s(I56
I35
tp3876
I1
s(I55
I53
tp3877
I1
s(I20
I9
tp3878
I1
s(I3
I51
tp3879
I1
s(I59
I62
tp3880
I1
s(I42
I26
tp3881
I1
s(I23
I44
tp3882
I1
s(I6
I44
tp3883
I1
s(I10
I35
tp3884
I1
s(I32
I28
tp3885
I1
s(I31
I60
tp3886
I1
s(I35
I57
tp3887
I1
s(I18
I35
tp3888
I1
s(I57
I4
tp3889
I1
s(I38
I38
tp3890
I1
s(I60
I23
tp3891
I1
s(I43
I41
tp3892
I1
s(I8
I21
tp3893
I1
s(I63
I58
tp3894
I1
s(I11
I0
tp3895
I1
s(I14
I15
tp3896
I1
s(I36
I24
tp3897
I1
s(I39
I61
tp3898
I1
s(I26
I18
tp3899
I1
s(I48
I11
tp3900
I1
s(I51
I6
tp3901
I1
s(I15
I52
tp3902
I1
s(I54
I17
tp3903
I1
s(I19
I49
tp3904
I1
s(I2
I11
tp3905
I1
s(I24
I36
tp3906
I100
s(I5
I14
tp3907
I1
s(I27
I49
tp3908
I1
s(I47
I50
tp3909
I1
s(I30
I30
tp3910
I1
s(I52
I47
tp3911
I1
s(I56
I42
tp3912
I1
s(I55
I50
tp3913
I1
s(I20
I16
tp3914
I1
s(I3
I56
tp3915
I1
s(I59
I55
tp3916
I1
s(I42
I5
tp3917
I1
s(I23
I37
tp3918
I100
s(I6
I39
tp3919
I1
s(I10
I42
tp3920
I1
s(I32
I19
tp3921
I1
s(I31
I37
tp3922
I1
s(I35
I62
tp3923
I1
s(I18
I26
tp3924
I1
s(I57
I13
tp3925
I1
s(I40
I51
tp3926
I1
s(I60
I46
tp3927
I1
s(I43
I46
tp3928
I1
s(I8
I28
tp3929
I1
s(I7
I60
tp3930
I1
s(I63
I35
tp3931
I1
s(I11
I57
tp3932
I1
s(I14
I22
tp3933
I1
s(I36
I7
tp3934
I1
s(I39
I58
tp3935
I1
s(I61
I9
tp3936
I1
s(I26
I29
tp3937
I100
s(I48
I2
tp3938
I1
s(I12
I24
tp3939
I1
s(I51
I15
tp3940
I1
s(I15
I61
tp3941
I1
s(I19
I54
tp3942
I1
s(I2
I2
tp3943
I1
s(I24
I43
tp3944
I100
s(I27
I54
tp3945
I1
s(I47
I59
tp3946
I1
s(I30
I1
tp3947
I1
s(I52
I54
tp3948
I1
s(I56
I49
tp3949
I1
s(I55
I11
tp3950
I1
s(I20
I31
tp3951
I100
s(I3
I33
tp3952
I1
s(I42
I12
tp3953
I1
s(I23
I34
tp3954
I100
s(I6
I30
tp3955
I1
s(I28
I47
tp3956
I1
s(I32
I42
tp3957
I1
s(I31
I34
tp3958
I1
s(I35
I39
tp3959
I1
s(I18
I21
tp3960
I1
s(I57
I22
tp3961
I1
s(I40
I58
tp3962
I1
s(I60
I37
tp3963
I1
s(I43
I39
tp3964
I1
s(I8
I3
tp3965
I1
s(I7
I53
tp3966
I1
s(I63
I40
tp3967
I1
s(I11
I62
tp3968
I1
s(I33
I13
tp3969
I1
s(I14
I25
tp3970
I1
s(I36
I14
tp3971
I1
s(I39
I51
tp3972
I1
s(I61
I2
tp3973
I1
s(I44
I62
tp3974
I1
s(I48
I57
tp3975
I1
s(I12
I23
tp3976
I1
s(I51
I20
tp3977
I1
s(I15
I58
tp3978
I1
s(I19
I63
tp3979
I1
s(I2
I29
tp3980
I1
s(I24
I50
tp3981
I1
s(I27
I15
tp3982
I1
s(I49
I30
tp3983
I1
s(I30
I8
tp3984
I1
s(I52
I61
tp3985
I1
s(I0
I43
tp3986
I1
s(I56
I56
tp3987
I1
s(I55
I0
tp3988
I1
s(I20
I38
tp3989
I100
s(I3
I38
tp3990
I1
s(I23
I59
tp3991
I1
s(I6
I17
tp3992
I1
s(I28
I38
tp3993
I1
s(I32
I33
tp3994
I1
s(I31
I43
tp3995
I1
s(I35
I44
tp3996
I1
s(I18
I12
tp3997
I1
s(I57
I31
tp3998
I1
s(I40
I33
tp3999
I1
s(I21
I1
tp4000
I1
s(I60
I60
tp4001
I1
s(I43
I28
tp4002
I1
s(I8
I10
tp4003
I1
s(I7
I50
tp4004
I1
s(I11
I55
tp4005
I1
s(I33
I6
tp4006
I1
s(I16
I58
tp4007
I1
s(I36
I53
tp4008
I1
s(I58
I6
tp4009
I1
s(I39
I40
tp4010
I1
s(I61
I27
tp4011
I1
s(I44
I53
tp4012
I1
s(I48
I48
tp4013
I1
s(I12
I14
tp4014
I1
s(I51
I29
tp4015
I1
s(I15
I3
tp4016
I1
s(I37
I18
tp4017
I1
s(I2
I20
tp4018
I1
s(I24
I57
tp4019
I1
s(I27
I4
tp4020
I1
s(I49
I23
tp4021
I1
s(I52
I4
tp4022
I1
s(I0
I34
tp4023
I1
s(I56
I63
tp4024
I1
s(I55
I25
tp4025
I1
s(I20
I45
tp4026
I1
s(I3
I47
tp4027
I1
s(I23
I48
tp4028
I1
s(I6
I8
tp4029
I1
s(I28
I61
tp4030
I1
s(I32
I56
tp4031
I1
s(I31
I16
tp4032
I1
s(I53
I35
tp4033
I1
s(I18
I7
tp4034
I1
s(I57
I32
tp4035
I1
s(I40
I40
tp4036
I1
s(I21
I10
tp4037
I1
s(I4
I54
tp4038
I1
s(I60
I59
tp4039
I1
s(I43
I21
tp4040
I1
s(I8
I49
tp4041
I1
s(I7
I43
tp4042
I1
s(I46
I2
tp4043
I1
s(I11
I44
tp4044
I1
s(I33
I31
tp4045
I1
s(I16
I49
tp4046
I1
s(I36
I60
tp4047
I1
s(I58
I1
tp4048
I1
s(I39
I33
tp4049
I1
s(I61
I20
tp4050
I1
s(I44
I44
tp4051
I1
s(I9
I22
tp4052
I1
s(I48
I55
tp4053
I1
s(I12
I5
tp4054
I1
s(I15
I8
tp4055
I1
s(I37
I27
tp4056
I1
s(I24
I0
tp4057
I1
s(I27
I29
tp4058
I1
s(I49
I8
tp4059
I1
s(I52
I3
tp4060
I1
s(I0
I57
tp4061
I1
s(I55
I22
tp4062
I1
s(I20
I52
tp4063
I1
s(I3
I20
tp4064
I1
s(I25
I39
tp4065
I100
s(I6
I3
tp4066
I1
s(I28
I52
tp4067
I1
s(I32
I63
tp4068
I1
s(I31
I25
tp4069
I1
s(I53
I44
tp4070
I1
s(I57
I41
tp4071
I1
s(I40
I47
tp4072
I1
s(I21
I19
tp4073
I1
s(I4
I61
tp4074
I1
s(I60
I50
tp4075
I1
s(I43
I10
tp4076
I1
s(I8
I56
tp4077
I1
s(I7
I32
tp4078
I1
s(I46
I5
tp4079
I1
s(I11
I37
tp4080
I1
s(I33
I16
tp4081
I1
s(I16
I40
tp4082
I100
s(I36
I59
tp4083
I1
s(I58
I8
tp4084
I1
s(I41
I48
tp4085
I1
s(I61
I45
tp4086
I1
s(I44
I43
tp4087
I1
s(I9
I31
tp4088
I1
s(I48
I46
tp4089
I1
s(I12
I60
tp4090
I1
s(I15
I17
tp4091
I1
s(I37
I4
tp4092
I1
s(I24
I7
tp4093
I1
s(I62
I20
tp4094
I1
s(I27
I18
tp4095
I1
s(I49
I1
tp4096
I1
s(I13
I27
tp4097
I1
s(I52
I10
tp4098
I1
s(I0
I48
tp4099
I1
s(I20
I51
tp4100
I1
s(I3
I29
tp4101
I1
s(I25
I40
tp4102
I100
s(I28
I51
tp4103
I1
ssS'walls'
p4104
(lp4105
(I11
I38
tp4106
a(I11
I39
tp4107
a(I11
I40
tp4108
a(I11
I41
tp4109
a(I11
I42
tp4110
a(I11
I43
tp4111
a(I12
I38
tp4112
a(I12
I39
tp4113
a(I12
I40
tp4114
a(I12
I41
tp4115
a(I12
I42
tp4116
a(I12
I43
tp4117
a(I13
I38
tp4118
a(I13
I39
tp4119
a(I13
I40
tp4120
a(I13
I41
tp4121
a(I13
I42
tp4122
a(I13
I43
tp4123
a(I14
I38
tp4124
a(I14
I39
tp4125
a(I14
I40
tp4126
a(I14
I41
tp4127
a(I14
I42
tp4128
a(I14
I43
tp4129
a(I15
I38
tp4130
a(I15
I39
tp4131
a(I15
I40
tp4132
a(I15
I41
tp4133
a(I15
I42
tp4134
a(I15
I43
tp4135
a(I16
I38
tp4136
a(I16
I39
tp4137
a(I16
I40
tp4138
a(I16
I41
tp4139
a(I16
I42
tp4140
a(I16
I43
tp4141
a(I17
I38
tp4142
a(I17
I39
tp4143
a(I17
I40
tp4144
a(I17
I41
tp4145
a(I17
I42
tp4146
a(I17
I43
tp4147
a(I18
I38
tp4148
a(I18
I39
tp4149
a(I18
I40
tp4150
a(I18
I41
tp4151
a(I18
I42
tp4152
a(I18
I43
tp4153
a(I19
I38
tp4154
a(I19
I39
tp4155
a(I19
I40
tp4156
a(I19
I41
tp4157
a(I19
I42
tp4158
a(I19
I43
tp4159
a(I20
I38
tp4160
a(I20
I39
tp4161
a(I20
I40
tp4162
a(I20
I41
tp4163
a(I20
I42
tp4164
a(I20
I43
tp4165
a(I21
I38
tp4166
a(I21
I39
tp4167
a(I21
I40
tp4168
a(I21
I41
tp4169
a(I21
I42
tp4170
a(I21
I43
tp4171
a(I21
I28
tp4172
a(I21
I29
tp4173
a(I21
I30
tp4174
a(I21
I31
tp4175
a(I21
I32
tp4176
a(I21
I33
tp4177
a(I21
I34
tp4178
a(I21
I35
tp4179
a(I21
I36
tp4180
a(I21
I37
tp4181
a(I21
I38
tp4182
a(I21
I39
tp4183
a(I21
I40
tp4184
a(I21
I41
tp4185
a(I21
I42
tp4186
a(I21
I43
tp4187
a(I22
I28
tp4188
a(I22
I29
tp4189
a(I22
I30
tp4190
a(I22
I31
tp4191
a(I22
I32
tp4192
a(I22
I33
tp4193
a(I22
I34
tp4194
a(I22
I35
tp4195
a(I22
I36
tp4196
a(I22
I37
tp4197
a(I22
I38
tp4198
a(I22
I39
tp4199
a(I22
I40
tp4200
a(I22
I41
tp4201
a(I22
I42
tp4202
a(I22
I43
tp4203
a(I23
I28
tp4204
a(I23
I29
tp4205
a(I23
I30
tp4206
a(I23
I31
tp4207
a(I23
I32
tp4208
a(I23
I33
tp4209
a(I23
I34
tp4210
a(I23
I35
tp4211
a(I23
I36
tp4212
a(I23
I37
tp4213
a(I23
I38
tp4214
a(I23
I39
tp4215
a(I23
I40
tp4216
a(I23
I41
tp4217
a(I23
I42
tp4218
a(I23
I43
tp4219
a(I24
I28
tp4220
a(I24
I29
tp4221
a(I24
I30
tp4222
a(I24
I31
tp4223
a(I24
I32
tp4224
a(I24
I33
tp4225
a(I24
I34
tp4226
a(I24
I35
tp4227
a(I24
I36
tp4228
a(I24
I37
tp4229
a(I24
I38
tp4230
a(I24
I39
tp4231
a(I24
I40
tp4232
a(I24
I41
tp4233
a(I24
I42
tp4234
a(I24
I43
tp4235
a(I25
I28
tp4236
a(I25
I29
tp4237
a(I25
I30
tp4238
a(I25
I31
tp4239
a(I25
I32
tp4240
a(I25
I33
tp4241
a(I25
I34
tp4242
a(I25
I35
tp4243
a(I25
I36
tp4244
a(I25
I37
tp4245
a(I25
I38
tp4246
a(I25
I39
tp4247
a(I25
I40
tp4248
a(I25
I41
tp4249
a(I25
I42
tp4250
a(I25
I43
tp4251
a(I26
I28
tp4252
a(I26
I29
tp4253
a(I26
I30
tp4254
a(I26
I31
tp4255
a(I26
I32
tp4256
a(I26
I33
tp4257
a(I26
I34
tp4258
a(I26
I35
tp4259
a(I26
I36
tp4260
a(I26
I37
tp4261
a(I26
I38
tp4262
a(I26
I39
tp4263
a(I26
I40
tp4264
a(I26
I41
tp4265
a(I26
I42
tp4266
a(I26
I43
tp4267
a(I11
I28
tp4268
a(I11
I29
tp4269
a(I11
I30
tp4270
a(I11
I31
tp4271
a(I11
I32
tp4272
a(I11
I33
tp4273
a(I12
I28
tp4274
a(I12
I29
tp4275
a(I12
I30
tp4276
a(I12
I31
tp4277
a(I12
I32
tp4278
a(I12
I33
tp4279
a(I13
I28
tp4280
a(I13
I29
tp4281
a(I13
I30
tp4282
a(I13
I31
tp4283
a(I13
I32
tp4284
a(I13
I33
tp4285
a(I14
I28
tp4286
a(I14
I29
tp4287
a(I14
I30
tp4288
a(I14
I31
tp4289
a(I14
I32
tp4290
a(I14
I33
tp4291
a(I15
I28
tp4292
a(I15
I29
tp4293
a(I15
I30
tp4294
a(I15
I31
tp4295
a(I15
I32
tp4296
a(I15
I33
tp4297
a(I16
I28
tp4298
a(I16
I29
tp4299
a(I16
I30
tp4300
a(I16
I31
tp4301
a(I16
I32
tp4302
a(I16
I33
tp4303
a(I17
I28
tp4304
a(I17
I29
tp4305
a(I17
I30
tp4306
a(I17
I31
tp4307
a(I17
I32
tp4308
a(I17
I33
tp4309
a(I18
I28
tp4310
a(I18
I29
tp4311
a(I18
I30
tp4312
a(I18
I31
tp4313
a(I18
I32
tp4314
a(I18
I33
tp4315
a(I19
I28
tp4316
a(I19
I29
tp4317
a(I19
I30
tp4318
a(I19
I31
tp4319
a(I19
I32
tp4320
a(I19
I33
tp4321
a(I20
I28
tp4322
a(I20
I29
tp4323
a(I20
I30
tp4324
a(I20
I31
tp4325
a(I20
I32
tp4326
a(I20
I33
tp4327
a(I21
I28
tp4328
a(I21
I29
tp4329
a(I21
I30
tp4330
a(I21
I31
tp4331
a(I21
I32
tp4332
a(I21
I33
tp4333
asS'height'
p4334
I64
sb.(lp1
(I40
I25
tp2
a.(lp1
(I40
I50
tp2
a.ccollections
defaultdict
p1
(cfeature_extract
not_a_lambda
p2
tRp3
.(dp1
(I32
I54
tp2
I12
s(I31
I6
tp3
I53
s(I53
I53
tp4
I16
s(I57
I50
tp5
I17
s(I40
I22
tp6
I28
s(I21
I28
tp7
I142
s(I4
I36
tp8
I50
s(I43
I3
tp9
I50
s(I8
I63
tp10
I45
s(I7
I25
tp11
I58
s(I46
I12
tp12
I44
s(I29
I44
tp13
I17
s(I33
I41
tp14
I16
s(I16
I47
tp15
I27
s(I36
I34
tp16
I20
s(I58
I19
tp17
I49
s(I41
I57
tp18
I8
s(I61
I38
tp19
I33
s(I44
I34
tp20
I20
s(I9
I0
tp21
I81
s(I48
I37
tp22
I21
s(I12
I59
tp23
I37
s(I34
I8
tp24
I48
s(I15
I30
tp25
I348
s(I37
I13
tp26
I40
s(I24
I14
tp27
I52
s(I62
I31
tp28
I41
s(I45
I61
tp29
I16
s(I49
I58
tp30
I17
s(I13
I20
tp31
I57
s(I52
I17
tp32
I45
s(I0
I55
tp33
I45
s(I20
I58
tp34
I28
s(I3
I2
tp35
I85
s(I25
I49
tp36
I16
s(I28
I10
tp37
I52
s(I50
I27
tp38
I33
s(I31
I15
tp39
I44
s(I53
I62
tp40
I25
s(I1
I40
tp41
I49
s(I57
I59
tp42
I26
s(I40
I29
tp43
I21
s(I21
I37
tp44
I153
s(I4
I35
tp45
I51
s(I8
I38
tp46
I44
s(I7
I22
tp47
I61
s(I46
I23
tp48
I33
s(I29
I37
tp49
I24
s(I33
I34
tp50
I23
s(I16
I38
tp51
I149
s(I36
I41
tp52
I13
s(I58
I26
tp53
I42
s(I41
I34
tp54
I17
s(I22
I12
tp55
I56
s(I61
I63
tp56
I34
s(I44
I25
tp57
I29
s(I9
I9
tp58
I72
s(I12
I50
tp59
I28
s(I34
I3
tp60
I53
s(I17
I57
tp61
I30
s(I37
I54
tp62
I7
s(I59
I9
tp63
I60
s(I24
I21
tp64
I45
s(I62
I6
tp65
I66
s(I45
I54
tp66
I9
s(I49
I51
tp67
I10
s(I13
I13
tp68
I64
s(I52
I24
tp69
I38
s(I0
I14
tp70
I76
s(I38
I31
tp71
I21
s(I3
I11
tp72
I76
s(I25
I58
tp73
I23
s(I28
I1
tp74
I61
s(I50
I18
tp75
I42
s(I53
I7
tp76
I56
s(I1
I33
tp77
I56
s(I57
I60
tp78
I27
s(I40
I4
tp79
I46
s(I21
I46
tp80
I23
s(I4
I42
tp81
I44
s(I8
I45
tp82
I37
s(I7
I15
tp83
I68
s(I46
I30
tp84
I26
s(I29
I62
tp85
I23
s(I33
I59
tp86
I16
s(I16
I29
tp87
I247
s(I54
I46
tp88
I18
s(I58
I37
tp89
I31
s(I41
I43
tp90
I8
s(I22
I7
tp91
I61
s(I5
I53
tp92
I38
s(I61
I56
tp93
I27
s(I44
I16
tp94
I38
s(I9
I50
tp95
I31
s(I47
I5
tp96
I52
s(I12
I41
tp97
I239
s(I34
I26
tp98
I30
s(I17
I50
tp99
I23
s(I37
I63
tp100
I16
s(I59
I14
tp101
I55
s(I24
I28
tp102
I139
s(I62
I9
tp103
I63
s(I45
I47
tp104
I8
s(I10
I19
tp105
I61
s(I49
I52
tp106
I11
s(I13
I6
tp107
I71
s(I0
I5
tp108
I85
s(I38
I22
tp109
I30
s(I25
I3
tp110
I62
s(I28
I24
tp111
I38
s(I50
I13
tp112
I47
s(I53
I0
tp113
I63
s(I1
I58
tp114
I47
s(I40
I11
tp115
I39
s(I21
I55
tp116
I24
s(I4
I17
tp117
I69
s(I26
I34
tp118
I129
s(I7
I4
tp119
I79
s(I46
I33
tp120
I23
s(I29
I55
tp121
I16
s(I33
I60
tp122
I17
s(I16
I20
tp123
I54
s(I54
I33
tp124
I31
s(I19
I1
tp125
I70
s(I58
I44
tp126
I24
s(I41
I44
tp127
I7
s(I22
I30
tp128
I341
s(I5
I62
tp129
I47
s(I61
I49
tp130
I22
s(I44
I15
tp131
I39
s(I9
I59
tp132
I40
s(I47
I2
tp133
I55
s(I12
I32
tp134
I248
s(I34
I21
tp135
I35
s(I17
I43
tp136
I129
s(I37
I56
tp137
I9
s(I59
I7
tp138
I62
s(I42
I53
tp139
I5
s(I62
I48
tp140
I24
s(I45
I40
tp141
I15
s(I10
I26
tp142
I54
s(I49
I45
tp143
I14
s(I13
I63
tp144
I40
s(I0
I28
tp145
I62
s(I38
I9
tp146
I43
s(I25
I4
tp147
I61
s(I63
I19
tp148
I54
s(I28
I23
tp149
I39
s(I50
I4
tp150
I56
s(I14
I38
tp151
I147
s(I53
I9
tp152
I54
s(I1
I51
tp153
I40
s(I21
I48
tp154
I21
s(I4
I24
tp155
I62
s(I26
I45
tp156
I19
s(I46
I40
tp157
I16
s(I29
I48
tp158
I13
s(I33
I53
tp159
I10
s(I16
I11
tp160
I63
s(I54
I56
tp161
I20
s(I19
I6
tp162
I65
s(I58
I55
tp163
I23
s(I41
I21
tp164
I30
s(I22
I17
tp165
I51
s(I5
I39
tp166
I46
s(I44
I6
tp167
I48
s(I9
I60
tp168
I41
s(I47
I11
tp169
I46
s(I30
I49
tp170
I11
s(I34
I44
tp171
I12
s(I17
I44
tp172
I29
s(I56
I1
tp173
I65
s(I37
I33
tp174
I20
s(I59
I28
tp175
I41
s(I42
I60
tp176
I12
s(I62
I59
tp177
I31
s(I45
I33
tp178
I22
s(I10
I5
tp179
I75
s(I49
I38
tp180
I21
s(I13
I56
tp181
I33
s(I35
I23
tp182
I32
s(I0
I19
tp183
I71
s(I38
I0
tp184
I52
s(I25
I13
tp185
I52
s(I63
I24
tp186
I49
s(I50
I63
tp187
I23
s(I14
I41
tp188
I332
s(I53
I18
tp189
I45
s(I1
I52
tp190
I41
s(I21
I57
tp191
I26
s(I4
I7
tp192
I79
s(I26
I52
tp193
I16
s(I46
I51
tp194
I7
s(I29
I9
tp195
I52
s(I51
I36
tp196
I25
s(I16
I2
tp197
I72
s(I54
I51
tp198
I15
s(I19
I15
tp199
I56
s(I2
I45
tp200
I43
s(I58
I62
tp201
I30
s(I41
I30
tp202
I21
s(I22
I40
tp203
I424
s(I5
I32
tp204
I53
s(I9
I37
tp205
I44
s(I47
I16
tp206
I41
s(I30
I56
tp207
I16
s(I34
I39
tp208
I17
s(I17
I37
tp209
I50
s(I56
I8
tp210
I58
s(I37
I42
tp211
I11
s(I59
I21
tp212
I48
s(I42
I39
tp213
I13
s(I23
I11
tp214
I56
s(I62
I34
tp215
I38
s(I45
I26
tp216
I29
s(I10
I12
tp217
I68
s(I13
I49
tp218
I28
s(I35
I28
tp219
I27
s(I18
I60
tp220
I32
s(I38
I59
tp221
I11
s(I60
I12
tp222
I58
s(I25
I22
tp223
I43
s(I63
I1
tp224
I72
s(I50
I54
tp225
I14
s(I14
I48
tp226
I28
s(I53
I27
tp227
I36
s(I1
I13
tp228
I76
s(I39
I24
tp229
I27
s(I4
I14
tp230
I72
s(I26
I63
tp231
I27
s(I46
I58
tp232
I14
s(I29
I2
tp233
I59
s(I51
I45
tp234
I16
s(I54
I10
tp235
I54
s(I19
I20
tp236
I51
s(I2
I36
tp237
I52
s(I58
I57
tp238
I25
s(I41
I7
tp239
I44
s(I22
I35
tp240
I255
s(I5
I41
tp241
I44
s(I9
I46
tp242
I35
s(I47
I25
tp243
I32
s(I30
I35
tp244
I25
s(I34
I62
tp245
I18
s(I17
I30
tp246
I346
s(I56
I15
tp247
I51
s(I55
I41
tp248
I24
s(I59
I42
tp249
I27
s(I42
I46
tp250
I6
s(I23
I0
tp251
I67
s(I6
I56
tp252
I40
s(I62
I37
tp253
I35
s(I45
I19
tp254
I36
s(I10
I55
tp255
I35
s(I32
I8
tp256
I50
s(I13
I42
tp257
I233
s(I35
I5
tp258
I50
s(I18
I55
tp259
I27
s(I38
I50
tp260
I2
s(I60
I11
tp261
I59
s(I25
I31
tp262
I232
s(I63
I14
tp263
I59
s(I11
I28
tp264
I152
s(I50
I49
tp265
I11
s(I14
I59
tp266
I35
s(I1
I6
tp267
I83
s(I39
I17
tp268
I34
s(I26
I6
tp269
I58
s(I46
I61
tp270
I17
s(I29
I27
tp271
I34
s(I51
I50
tp272
I11
s(I54
I13
tp273
I51
s(I19
I29
tp274
I244
s(I2
I63
tp275
I51
s(I41
I8
tp276
I43
s(I22
I58
tp277
I26
s(I5
I18
tp278
I67
s(I27
I45
tp279
I18
s(I47
I38
tp280
I19
s(I30
I42
tp281
I18
s(I34
I57
tp282
I13
s(I17
I23
tp283
I50
s(I56
I22
tp284
I44
s(I55
I38
tp285
I27
s(I20
I4
tp286
I66
s(I59
I35
tp287
I34
s(I42
I41
tp288
I11
s(I23
I25
tp289
I42
s(I6
I51
tp290
I35
s(I62
I44
tp291
I28
s(I45
I12
tp292
I43
s(I10
I62
tp293
I42
s(I32
I15
tp294
I43
s(I13
I35
tp295
I48
s(I35
I10
tp296
I45
s(I18
I46
tp297
I26
s(I38
I53
tp298
I5
s(I60
I2
tp299
I68
s(I43
I58
tp300
I11
s(I63
I55
tp301
I28
s(I11
I21
tp302
I58
s(I50
I40
tp303
I20
s(I14
I2
tp304
I74
s(I1
I31
tp305
I58
s(I39
I14
tp306
I37
s(I26
I1
tp307
I63
s(I48
I30
tp308
I28
s(I29
I20
tp309
I41
s(I51
I59
tp310
I20
s(I15
I33
tp311
I151
s(I54
I4
tp312
I60
s(I19
I34
tp313
I55
s(I2
I54
tp314
I42
s(I22
I61
tp315
I29
s(I5
I27
tp316
I58
s(I27
I34
tp317
I29
s(I47
I47
tp318
I10
s(I30
I45
tp319
I15
s(I34
I48
tp320
I8
s(I17
I8
tp321
I65
s(I56
I29
tp322
I37
s(I55
I63
tp323
I28
s(I20
I3
tp324
I67
s(I59
I56
tp325
I25
s(I42
I16
tp326
I36
s(I23
I22
tp327
I45
s(I6
I42
tp328
I42
s(I45
I5
tp329
I50
s(I10
I57
tp330
I37
s(I32
I6
tp331
I52
s(I31
I54
tp332
I13
s(I35
I51
tp333
I6
s(I18
I41
tp334
I328
s(I57
I2
tp335
I65
s(I38
I44
tp336
I8
s(I60
I25
tp337
I45
s(I43
I51
tp338
I4
s(I63
I60
tp339
I33
s(I11
I10
tp340
I69
s(I50
I35
tp341
I25
s(I14
I5
tp342
I71
s(I36
I18
tp343
I36
s(I1
I16
tp344
I73
s(I39
I7
tp345
I44
s(I26
I8
tp346
I56
s(I48
I21
tp347
I37
s(I51
I0
tp348
I61
s(I15
I46
tp349
I29
s(I54
I31
tp350
I33
s(I19
I43
tp351
I127
s(I2
I49
tp352
I39
s(I22
I52
tp353
I20
s(I5
I4
tp354
I81
s(I27
I59
tp355
I22
s(I47
I52
tp356
I9
s(I30
I20
tp357
I40
s(I52
I33
tp358
I29
s(I17
I1
tp359
I72
s(I56
I36
tp360
I30
s(I55
I52
tp361
I17
s(I20
I10
tp362
I60
s(I3
I50
tp363
I37
s(I59
I49
tp364
I20
s(I42
I27
tp365
I25
s(I23
I47
tp366
I20
s(I6
I45
tp367
I39
s(I10
I32
tp368
I48
s(I32
I29
tp369
I29
s(I31
I63
tp370
I22
s(I35
I56
tp371
I11
s(I18
I32
tp372
I254
s(I57
I11
tp373
I56
s(I38
I39
tp374
I13
s(I60
I16
tp375
I54
s(I43
I40
tp376
I13
s(I8
I22
tp377
I60
s(I63
I37
tp378
I36
s(I11
I3
tp379
I76
s(I14
I12
tp380
I64
s(I36
I25
tp381
I29
s(I39
I60
tp382
I11
s(I61
I15
tp383
I56
s(I26
I19
tp384
I45
s(I48
I12
tp385
I46
s(I51
I9
tp386
I52
s(I15
I55
tp387
I30
s(I54
I22
tp388
I42
s(I19
I48
tp389
I23
s(I2
I8
tp390
I80
s(I24
I37
tp391
I326
s(I5
I13
tp392
I72
s(I27
I48
tp393
I15
s(I47
I61
tp394
I18
s(I30
I31
tp395
I29
s(I52
I40
tp396
I22
s(I56
I43
tp397
I23
s(I55
I13
tp398
I52
s(I20
I17
tp399
I53
s(I3
I59
tp400
I46
s(I59
I54
tp401
I23
s(I42
I2
tp402
I50
s(I23
I36
tp403
I354
s(I6
I36
tp404
I48
s(I10
I43
tp405
I37
s(I32
I20
tp406
I38
s(I31
I36
tp407
I23
s(I35
I33
tp408
I22
s(I18
I27
tp409
I45
s(I57
I12
tp410
I55
s(I40
I52
tp411
I2
s(I60
I47
tp412
I23
s(I43
I33
tp413
I20
s(I8
I29
tp414
I53
s(I7
I63
tp415
I46
s(I63
I34
tp416
I39
s(I11
I56
tp417
I35
s(I33
I11
tp418
I46
s(I14
I23
tp419
I53
s(I36
I0
tp420
I54
s(I39
I53
tp421
I4
s(I61
I8
tp422
I63
s(I26
I26
tp423
I38
s(I48
I3
tp424
I55
s(I12
I25
tp425
I53
s(I51
I14
tp426
I47
s(I15
I60
tp427
I35
s(I19
I57
tp428
I28
s(I2
I3
tp429
I85
s(I24
I44
tp430
I22
s(I27
I9
tp431
I54
s(I47
I58
tp432
I15
s(I30
I6
tp433
I54
s(I52
I55
tp434
I17
s(I56
I50
tp435
I16
s(I55
I10
tp436
I55
s(I20
I24
tp437
I46
s(I3
I32
tp438
I55
s(I42
I13
tp439
I39
s(I23
I61
tp440
I28
s(I6
I31
tp441
I53
s(I28
I40
tp442
I22
s(I32
I43
tp443
I15
s(I31
I45
tp444
I14
s(I35
I38
tp445
I17
s(I18
I18
tp446
I54
s(I57
I21
tp447
I46
s(I40
I59
tp448
I9
s(I21
I7
tp449
I62
s(I60
I38
tp450
I32
s(I43
I38
tp451
I15
s(I8
I4
tp452
I78
s(I7
I52
tp453
I35
s(I63
I43
tp454
I30
s(I11
I49
tp455
I30
s(I33
I12
tp456
I45
s(I14
I30
tp457
I349
s(I36
I15
tp458
I39
s(I39
I50
tp459
I1
s(I61
I1
tp460
I70
s(I44
I63
tp461
I17
s(I48
I58
tp462
I16
s(I12
I16
tp463
I62
s(I51
I23
tp464
I38
s(I15
I5
tp465
I70
s(I19
I62
tp466
I33
s(I2
I26
tp467
I62
s(I24
I51
tp468
I17
s(I27
I14
tp469
I49
s(I49
I29
tp470
I30
s(I30
I9
tp471
I51
s(I52
I62
tp472
I24
s(I0
I44
tp473
I46
s(I56
I57
tp474
I23
s(I55
I3
tp475
I62
s(I20
I39
tp476
I253
s(I3
I41
tp477
I46
s(I23
I58
tp478
I25
s(I6
I22
tp479
I62
s(I28
I39
tp480
I23
s(I32
I34
tp481
I24
s(I31
I42
tp482
I17
s(I35
I47
tp483
I8
s(I18
I13
tp484
I59
s(I57
I30
tp485
I37
s(I40
I34
tp486
I16
s(I21
I0
tp487
I69
s(I60
I61
tp488
I31
s(I43
I31
tp489
I22
s(I8
I11
tp490
I71
s(I7
I45
tp491
I38
s(I11
I54
tp492
I33
s(I33
I5
tp493
I52
s(I16
I59
tp494
I33
s(I36
I54
tp495
I8
s(I58
I7
tp496
I61
s(I39
I43
tp497
I8
s(I61
I26
tp498
I45
s(I44
I54
tp499
I8
s(I48
I49
tp500
I9
s(I12
I15
tp501
I63
s(I51
I28
tp502
I33
s(I15
I2
tp503
I73
s(I37
I17
tp504
I36
s(I2
I21
tp505
I67
s(I24
I58
tp506
I24
s(I27
I7
tp507
I56
s(I49
I22
tp508
I37
s(I52
I5
tp509
I57
s(I0
I35
tp510
I55
s(I55
I24
tp511
I41
s(I20
I46
tp512
I24
s(I3
I46
tp513
I41
s(I23
I51
tp514
I18
s(I6
I9
tp515
I75
s(I28
I62
tp516
I24
s(I32
I57
tp517
I15
s(I31
I19
tp518
I40
s(I53
I34
tp519
I29
s(I18
I4
tp520
I68
s(I57
I39
tp521
I28
s(I40
I41
tp522
I9
s(I21
I9
tp523
I60
s(I4
I55
tp524
I41
s(I60
I52
tp525
I22
s(I43
I20
tp526
I33
s(I8
I50
tp527
I32
s(I7
I42
tp528
I41
s(I46
I3
tp529
I53
s(I11
I47
tp530
I32
s(I33
I30
tp531
I27
s(I16
I50
tp532
I24
s(I36
I61
tp533
I15
s(I58
I14
tp534
I54
s(I39
I32
tp535
I19
s(I61
I19
tp536
I52
s(I44
I45
tp537
I9
s(I9
I21
tp538
I60
s(I48
I40
tp539
I18
s(I12
I6
tp540
I72
s(I15
I11
tp541
I64
s(I37
I26
tp542
I27
s(I24
I1
tp543
I65
s(I62
I18
tp544
I54
s(I27
I28
tp545
I35
s(I49
I15
tp546
I44
s(I52
I12
tp547
I50
s(I0
I58
tp548
I48
s(I55
I17
tp549
I48
s(I20
I53
tp550
I23
s(I3
I23
tp551
I64
s(I25
I38
tp552
I225
s(I6
I0
tp553
I84
s(I28
I53
tp554
I15
s(I32
I48
tp555
I10
s(I31
I24
tp556
I35
s(I53
I43
tp557
I20
s(I57
I40
tp558
I27
s(I40
I16
tp559
I34
s(I21
I18
tp560
I51
s(I4
I62
tp561
I48
s(I60
I51
tp562
I21
s(I43
I13
tp563
I40
s(I8
I57
tp564
I39
s(I7
I35
tp565
I48
s(I46
I10
tp566
I46
s(I11
I36
tp567
I45
s(I33
I23
tp568
I34
s(I16
I41
tp569
I330
s(I36
I36
tp570
I18
s(I58
I9
tp571
I59
s(I41
I55
tp572
I6
s(I61
I44
tp573
I27
s(I44
I36
tp574
I18
s(I9
I30
tp575
I51
s(I48
I47
tp576
I11
s(I12
I61
tp577
I39
s(I34
I14
tp578
I42
s(I15
I16
tp579
I59
s(I37
I3
tp580
I50
s(I24
I8
tp581
I58
s(I62
I21
tp582
I51
s(I27
I21
tp583
I42
s(I49
I0
tp584
I59
s(I13
I26
tp585
I51
s(I52
I11
tp586
I51
s(I0
I49
tp587
I41
s(I20
I60
tp588
I30
s(I3
I28
tp589
I59
s(I25
I47
tp590
I18
s(I28
I12
tp591
I50
s(I32
I55
tp592
I13
s(I31
I1
tp593
I58
s(I53
I52
tp594
I15
s(I57
I49
tp595
I18
s(I40
I23
tp596
I27
s(I21
I27
tp597
I42
s(I4
I37
tp598
I49
s(I43
I2
tp599
I51
s(I8
I32
tp600
I50
s(I7
I24
tp601
I59
s(I46
I13
tp602
I43
s(I29
I43
tp603
I18
s(I33
I40
tp604
I17
s(I16
I32
tp605
I252
s(I36
I35
tp606
I19
s(I58
I16
tp607
I52
s(I41
I56
tp608
I7
s(I22
I10
tp609
I58
s(I61
I37
tp610
I34
s(I44
I35
tp611
I19
s(I9
I7
tp612
I74
s(I48
I38
tp613
I20
s(I12
I52
tp614
I30
s(I34
I9
tp615
I47
s(I15
I25
tp616
I50
s(I37
I12
tp617
I41
s(I24
I15
tp618
I51
s(I62
I28
tp619
I44
s(I45
I60
tp620
I15
s(I49
I57
tp621
I16
s(I13
I19
tp622
I58
s(I52
I18
tp623
I44
s(I0
I8
tp624
I82
s(I20
I59
tp625
I29
s(I3
I5
tp626
I82
s(I25
I48
tp627
I17
s(I28
I11
tp628
I51
s(I50
I24
tp629
I36
s(I31
I14
tp630
I45
s(I53
I61
tp631
I24
s(I1
I47
tp632
I42
s(I57
I58
tp633
I25
s(I40
I30
tp634
I20
s(I21
I36
tp635
I154
s(I4
I44
tp636
I42
s(I8
I39
tp637
I43
s(I7
I17
tp638
I66
s(I46
I20
tp639
I36
s(I29
I36
tp640
I25
s(I33
I33
tp641
I24
s(I16
I39
tp642
I249
s(I36
I42
tp643
I12
s(I58
I27
tp644
I41
s(I41
I33
tp645
I18
s(I22
I13
tp646
I55
s(I61
I62
tp647
I33
s(I44
I26
tp648
I28
s(I9
I8
tp649
I73
s(I12
I51
tp650
I29
s(I34
I0
tp651
I56
s(I17
I56
tp652
I29
s(I37
I53
tp653
I6
s(I59
I8
tp654
I61
s(I24
I22
tp655
I44
s(I62
I7
tp656
I65
s(I45
I53
tp657
I8
s(I49
I50
tp658
I9
s(I13
I12
tp659
I65
s(I52
I25
tp660
I37
s(I0
I15
tp661
I75
s(I38
I28
tp662
I24
s(I3
I10
tp663
I77
s(I25
I57
tp664
I22
s(I28
I2
tp665
I60
s(I50
I19
tp666
I41
s(I53
I6
tp667
I57
s(I1
I32
tp668
I57
s(I40
I5
tp669
I45
s(I21
I45
tp670
I24
s(I4
I43
tp671
I43
s(I8
I46
tp672
I36
s(I7
I14
tp673
I69
s(I46
I31
tp674
I25
s(I29
I61
tp675
I22
s(I33
I58
tp676
I15
s(I16
I30
tp677
I347
s(I54
I47
tp678
I17
s(I58
I34
tp679
I34
s(I41
I42
tp680
I9
s(I22
I4
tp681
I64
s(I5
I52
tp682
I37
s(I61
I55
tp683
I26
s(I44
I17
tp684
I37
s(I9
I49
tp685
I32
s(I47
I4
tp686
I53
s(I12
I42
tp687
I234
s(I34
I27
tp688
I29
s(I17
I49
tp689
I24
s(I37
I62
tp690
I15
s(I59
I1
tp691
I68
s(I24
I29
tp692
I239
s(I62
I14
tp693
I58
s(I45
I46
tp694
I9
s(I10
I16
tp695
I64
s(I49
I43
tp696
I16
s(I13
I5
tp697
I72
s(I0
I6
tp698
I84
s(I38
I23
tp699
I29
s(I25
I2
tp700
I63
s(I63
I21
tp701
I52
s(I28
I25
tp702
I37
s(I50
I10
tp703
I50
s(I53
I15
tp704
I48
s(I1
I57
tp705
I46
s(I40
I12
tp706
I38
s(I21
I54
tp707
I23
s(I4
I18
tp708
I68
s(I26
I35
tp709
I128
s(I7
I7
tp710
I76
s(I46
I38
tp711
I18
s(I29
I54
tp712
I15
s(I33
I51
tp713
I8
s(I16
I21
tp714
I53
s(I54
I38
tp715
I26
s(I19
I0
tp716
I71
s(I58
I45
tp717
I23
s(I41
I19
tp718
I32
s(I22
I31
tp719
I441
s(I5
I61
tp720
I46
s(I61
I48
tp721
I23
s(I44
I8
tp722
I46
s(I9
I58
tp723
I39
s(I47
I13
tp724
I44
s(I12
I33
tp725
I148
s(I34
I18
tp726
I38
s(I17
I42
tp727
I229
s(I37
I39
tp728
I14
s(I59
I6
tp729
I63
s(I42
I50
tp730
I2
s(I62
I49
tp731
I23
s(I45
I39
tp732
I16
s(I10
I27
tp733
I53
s(I49
I44
tp734
I15
s(I13
I62
tp735
I39
s(I35
I17
tp736
I38
s(I0
I29
tp737
I61
s(I38
I14
tp738
I38
s(I25
I11
tp739
I54
s(I63
I18
tp740
I55
s(I28
I16
tp741
I46
s(I50
I5
tp742
I55
s(I14
I39
tp743
I247
s(I53
I8
tp744
I55
s(I1
I50
tp745
I39
s(I21
I63
tp746
I32
s(I4
I25
tp747
I61
s(I26
I42
tp748
I121
s(I46
I41
tp749
I15
s(I29
I15
tp750
I46
s(I33
I52
tp751
I9
s(I16
I12
tp752
I62
s(I54
I57
tp753
I21
s(I19
I9
tp754
I62
s(I58
I52
tp755
I20
s(I41
I20
tp756
I31
s(I22
I22
tp757
I46
s(I5
I38
tp758
I47
s(I44
I7
tp759
I47
s(I9
I35
tp760
I46
s(I47
I10
tp761
I47
s(I30
I54
tp762
I14
s(I34
I45
tp763
I11
s(I17
I35
tp764
I52
s(I56
I2
tp765
I64
s(I37
I32
tp766
I21
s(I59
I31
tp767
I38
s(I42
I61
tp768
I13
s(I23
I13
tp769
I54
s(I62
I56
tp770
I28
s(I45
I32
tp771
I23
s(I10
I2
tp772
I78
s(I49
I37
tp773
I22
s(I13
I55
tp774
I32
s(I35
I22
tp775
I33
s(I0
I20
tp776
I70
s(I38
I1
tp777
I51
s(I25
I12
tp778
I53
s(I63
I27
tp779
I46
s(I50
I60
tp780
I20
s(I14
I46
tp781
I30
s(I53
I17
tp782
I46
s(I1
I11
tp783
I78
s(I21
I56
tp784
I25
s(I4
I0
tp785
I86
s(I26
I53
tp786
I17
s(I46
I48
tp787
I8
s(I29
I8
tp788
I53
s(I51
I39
tp789
I22
s(I16
I3
tp790
I71
s(I54
I48
tp791
I16
s(I19
I14
tp792
I57
s(I2
I42
tp793
I46
s(I58
I63
tp794
I31
s(I41
I29
tp795
I22
s(I22
I41
tp796
I324
s(I5
I47
tp797
I38
s(I9
I36
tp798
I45
s(I47
I19
tp799
I38
s(I30
I57
tp800
I17
s(I34
I36
tp801
I20
s(I17
I36
tp802
I51
s(I56
I9
tp803
I57
s(I37
I41
tp804
I12
s(I59
I20
tp805
I49
s(I42
I36
tp806
I16
s(I23
I10
tp807
I57
s(I62
I35
tp808
I37
s(I45
I25
tp809
I30
s(I10
I13
tp810
I67
s(I13
I48
tp811
I29
s(I35
I31
tp812
I24
s(I18
I61
tp813
I33
s(I38
I56
tp814
I8
s(I60
I13
tp815
I57
s(I25
I21
tp816
I44
s(I63
I0
tp817
I73
s(I50
I55
tp818
I15
s(I14
I49
tp819
I27
s(I53
I26
tp820
I37
s(I1
I12
tp821
I77
s(I39
I27
tp822
I24
s(I4
I15
tp823
I71
s(I26
I60
tp824
I24
s(I46
I59
tp825
I15
s(I29
I1
tp826
I60
s(I51
I44
tp827
I17
s(I54
I11
tp828
I53
s(I19
I23
tp829
I48
s(I2
I37
tp830
I51
s(I41
I6
tp831
I45
s(I22
I32
tp832
I456
s(I5
I40
tp833
I45
s(I9
I45
tp834
I36
s(I47
I24
tp835
I33
s(I30
I32
tp836
I28
s(I34
I63
tp837
I19
s(I17
I29
tp838
I246
s(I56
I16
tp839
I50
s(I55
I40
tp840
I25
s(I59
I45
tp841
I24
s(I42
I47
tp842
I5
s(I23
I3
tp843
I64
s(I6
I57
tp844
I41
s(I62
I42
tp845
I30
s(I45
I18
tp846
I37
s(I10
I52
tp847
I32
s(I32
I9
tp848
I49
s(I13
I41
tp849
I333
s(I35
I4
tp850
I51
s(I18
I52
tp851
I24
s(I38
I51
tp852
I3
s(I60
I4
tp853
I66
s(I25
I30
tp854
I233
s(I63
I9
tp855
I64
s(I11
I31
tp856
I149
s(I50
I46
tp857
I14
s(I14
I56
tp858
I32
s(I1
I5
tp859
I84
s(I39
I16
tp860
I35
s(I26
I7
tp861
I57
s(I48
I24
tp862
I34
s(I29
I26
tp863
I35
s(I51
I53
tp864
I14
s(I54
I2
tp865
I62
s(I19
I28
tp866
I144
s(I2
I60
tp867
I48
s(I41
I15
tp868
I36
s(I22
I59
tp869
I27
s(I5
I17
tp870
I68
s(I27
I44
tp871
I19
s(I47
I33
tp872
I24
s(I30
I43
tp873
I17
s(I34
I54
tp874
I10
s(I17
I22
tp875
I51
s(I56
I23
tp876
I43
s(I55
I33
tp877
I32
s(I20
I5
tp878
I65
s(I59
I34
tp879
I35
s(I42
I22
tp880
I30
s(I23
I24
tp881
I43
s(I6
I48
tp882
I36
s(I62
I45
tp883
I27
s(I45
I11
tp884
I44
s(I10
I63
tp885
I43
s(I32
I0
tp886
I58
s(I13
I34
tp887
I49
s(I35
I13
tp888
I42
s(I18
I47
tp889
I25
s(I38
I42
tp890
I10
s(I60
I3
tp891
I67
s(I43
I61
tp892
I14
s(I63
I54
tp893
I27
s(I11
I20
tp894
I59
s(I50
I41
tp895
I19
s(I14
I3
tp896
I73
s(I36
I20
tp897
I34
s(I1
I30
tp898
I59
s(I39
I9
tp899
I42
s(I26
I14
tp900
I50
s(I48
I31
tp901
I27
s(I29
I19
tp902
I42
s(I51
I58
tp903
I19
s(I15
I32
tp904
I251
s(I54
I5
tp905
I59
s(I19
I37
tp906
I52
s(I2
I55
tp907
I43
s(I22
I50
tp908
I18
s(I5
I26
tp909
I59
s(I27
I37
tp910
I26
s(I47
I46
tp911
I11
s(I30
I18
tp912
I42
s(I34
I49
tp913
I7
s(I17
I15
tp914
I58
s(I56
I30
tp915
I36
s(I55
I62
tp916
I27
s(I20
I12
tp917
I58
s(I59
I59
tp918
I28
s(I42
I17
tp919
I35
s(I23
I17
tp920
I50
s(I6
I43
tp921
I41
s(I45
I4
tp922
I51
s(I10
I38
tp923
I42
s(I32
I7
tp924
I51
s(I31
I49
tp925
I10
s(I35
I50
tp926
I5
s(I18
I38
tp927
I151
s(I57
I1
tp928
I66
s(I38
I45
tp929
I7
s(I60
I26
tp930
I44
s(I43
I50
tp931
I3
s(I8
I16
tp932
I66
s(I63
I63
tp933
I36
s(I11
I13
tp934
I66
s(I50
I32
tp935
I28
s(I14
I10
tp936
I66
s(I36
I19
tp937
I35
s(I1
I23
tp938
I66
s(I39
I6
tp939
I45
s(I26
I9
tp940
I55
s(I48
I22
tp941
I36
s(I51
I3
tp942
I58
s(I15
I41
tp943
I331
s(I54
I28
tp944
I36
s(I19
I42
tp945
I227
s(I2
I14
tp946
I74
s(I22
I53
tp947
I21
s(I5
I3
tp948
I82
s(I27
I58
tp949
I21
s(I47
I55
tp950
I12
s(I30
I21
tp951
I39
s(I52
I34
tp952
I28
s(I17
I0
tp953
I73
s(I56
I37
tp954
I29
s(I55
I55
tp955
I20
s(I20
I11
tp956
I59
s(I3
I53
tp957
I40
s(I59
I48
tp958
I21
s(I42
I24
tp959
I28
s(I23
I46
tp960
I21
s(I6
I34
tp961
I50
s(I10
I33
tp962
I47
s(I32
I30
tp963
I28
s(I31
I62
tp964
I21
s(I35
I59
tp965
I14
s(I18
I33
tp966
I154
s(I57
I10
tp967
I57
s(I38
I36
tp968
I16
s(I60
I17
tp969
I53
s(I43
I43
tp970
I10
s(I8
I23
tp971
I59
s(I63
I36
tp972
I37
s(I11
I2
tp973
I77
s(I14
I13
tp974
I63
s(I36
I26
tp975
I28
s(I39
I63
tp976
I14
s(I61
I14
tp977
I57
s(I26
I16
tp978
I48
s(I48
I13
tp979
I45
s(I51
I8
tp980
I53
s(I15
I54
tp981
I29
s(I54
I23
tp982
I41
s(I19
I51
tp983
I22
s(I2
I9
tp984
I79
s(I24
I38
tp985
I325
s(I5
I12
tp986
I73
s(I27
I51
tp987
I14
s(I47
I60
tp988
I17
s(I30
I28
tp989
I32
s(I52
I41
tp990
I21
s(I56
I44
tp991
I22
s(I55
I12
tp992
I53
s(I20
I18
tp993
I52
s(I3
I58
tp994
I45
s(I42
I3
tp995
I49
s(I23
I39
tp996
I424
s(I6
I37
tp997
I47
s(I10
I40
tp998
I40
s(I32
I21
tp999
I37
s(I31
I39
tp1000
I20
s(I35
I32
tp1001
I23
s(I18
I24
tp1002
I48
s(I57
I19
tp1003
I48
s(I40
I53
tp1004
I3
s(I60
I40
tp1005
I30
s(I43
I32
tp1006
I21
s(I8
I30
tp1007
I52
s(I7
I62
tp1008
I45
s(I63
I45
tp1009
I28
s(I11
I59
tp1010
I38
s(I33
I10
tp1011
I47
s(I14
I20
tp1012
I56
s(I36
I1
tp1013
I53
s(I39
I52
tp1014
I3
s(I61
I7
tp1015
I64
s(I26
I27
tp1016
I37
s(I48
I4
tp1017
I54
s(I12
I26
tp1018
I52
s(I51
I17
tp1019
I44
s(I15
I63
tp1020
I38
s(I19
I56
tp1021
I27
s(I2
I0
tp1022
I88
s(I24
I45
tp1023
I21
s(I27
I8
tp1024
I55
s(I49
I27
tp1025
I32
s(I30
I7
tp1026
I53
s(I52
I48
tp1027
I14
s(I56
I51
tp1028
I17
s(I55
I5
tp1029
I60
s(I20
I25
tp1030
I45
s(I3
I35
tp1031
I52
s(I42
I10
tp1032
I42
s(I23
I60
tp1033
I27
s(I6
I28
tp1034
I56
s(I28
I41
tp1035
I21
s(I32
I44
tp1036
I14
s(I31
I44
tp1037
I15
s(I35
I41
tp1038
I14
s(I18
I19
tp1039
I53
s(I57
I20
tp1040
I47
s(I40
I60
tp1041
I10
s(I21
I6
tp1042
I63
s(I60
I39
tp1043
I31
s(I43
I25
tp1044
I28
s(I8
I5
tp1045
I77
s(I7
I55
tp1046
I38
s(I63
I42
tp1047
I31
s(I11
I48
tp1048
I31
s(I33
I3
tp1049
I54
s(I14
I31
tp1050
I350
s(I36
I8
tp1051
I46
s(I39
I45
tp1052
I6
s(I61
I0
tp1053
I71
s(I44
I56
tp1054
I10
s(I48
I59
tp1055
I17
s(I12
I17
tp1056
I61
s(I51
I22
tp1057
I39
s(I15
I4
tp1058
I71
s(I37
I23
tp1059
I30
s(I2
I27
tp1060
I61
s(I24
I52
tp1061
I18
s(I27
I1
tp1062
I62
s(I49
I28
tp1063
I31
s(I30
I14
tp1064
I46
s(I52
I63
tp1065
I25
s(I0
I45
tp1066
I45
s(I56
I58
tp1067
I24
s(I55
I2
tp1068
I63
s(I20
I32
tp1069
I256
s(I3
I40
tp1070
I47
s(I23
I53
tp1071
I20
s(I6
I23
tp1072
I61
s(I28
I32
tp1073
I30
s(I32
I35
tp1074
I23
s(I31
I21
tp1075
I38
s(I35
I46
tp1076
I9
s(I18
I10
tp1077
I62
s(I57
I29
tp1078
I38
s(I40
I35
tp1079
I15
s(I21
I15
tp1080
I54
s(I60
I62
tp1081
I32
s(I43
I30
tp1082
I23
s(I8
I12
tp1083
I70
s(I7
I44
tp1084
I39
s(I11
I41
tp1085
I139
s(I33
I4
tp1086
I53
s(I16
I60
tp1087
I34
s(I36
I55
tp1088
I9
s(I58
I4
tp1089
I64
s(I39
I42
tp1090
I9
s(I61
I25
tp1091
I46
s(I44
I55
tp1092
I9
s(I9
I19
tp1093
I62
s(I48
I50
tp1094
I8
s(I12
I8
tp1095
I70
s(I51
I31
tp1096
I30
s(I15
I13
tp1097
I62
s(I37
I16
tp1098
I37
s(I2
I18
tp1099
I70
s(I24
I59
tp1100
I25
s(I27
I6
tp1101
I57
s(I49
I21
tp1102
I38
s(I52
I6
tp1103
I56
s(I0
I36
tp1104
I54
s(I55
I27
tp1105
I38
s(I20
I47
tp1106
I23
s(I3
I17
tp1107
I70
s(I23
I50
tp1108
I17
s(I6
I14
tp1109
I70
s(I28
I63
tp1110
I25
s(I32
I58
tp1111
I16
s(I31
I18
tp1112
I41
s(I53
I33
tp1113
I30
s(I18
I5
tp1114
I67
s(I57
I38
tp1115
I29
s(I40
I42
tp1116
I8
s(I21
I8
tp1117
I61
s(I4
I48
tp1118
I38
s(I60
I53
tp1119
I23
s(I43
I23
tp1120
I30
s(I8
I51
tp1121
I33
s(I7
I37
tp1122
I46
s(I46
I0
tp1123
I56
s(I11
I46
tp1124
I33
s(I33
I29
tp1125
I28
s(I16
I51
tp1126
I25
s(I36
I62
tp1127
I16
s(I58
I15
tp1128
I53
s(I39
I35
tp1129
I16
s(I61
I18
tp1130
I53
s(I44
I46
tp1131
I8
s(I9
I20
tp1132
I61
s(I48
I41
tp1133
I17
s(I12
I7
tp1134
I71
s(I15
I10
tp1135
I65
s(I37
I25
tp1136
I28
s(I24
I2
tp1137
I64
s(I62
I19
tp1138
I53
s(I27
I31
tp1139
I32
s(I49
I14
tp1140
I45
s(I52
I13
tp1141
I49
s(I0
I59
tp1142
I49
s(I55
I16
tp1143
I49
s(I20
I54
tp1144
I24
s(I3
I22
tp1145
I65
s(I25
I37
tp1146
I226
s(I6
I1
tp1147
I83
s(I28
I54
tp1148
I16
s(I32
I49
tp1149
I9
s(I31
I27
tp1150
I32
s(I53
I42
tp1151
I21
s(I57
I47
tp1152
I20
s(I40
I17
tp1153
I33
s(I21
I17
tp1154
I52
s(I4
I63
tp1155
I49
s(I43
I12
tp1156
I41
s(I8
I58
tp1157
I40
s(I7
I34
tp1158
I49
s(I46
I11
tp1159
I45
s(I11
I39
tp1160
I141
s(I33
I22
tp1161
I35
s(I16
I42
tp1162
I230
s(I36
I37
tp1163
I17
s(I58
I22
tp1164
I46
s(I41
I54
tp1165
I5
s(I61
I43
tp1166
I28
s(I44
I37
tp1167
I17
s(I9
I29
tp1168
I52
s(I48
I32
tp1169
I26
s(I12
I62
tp1170
I40
s(I34
I15
tp1171
I41
s(I15
I19
tp1172
I56
s(I37
I2
tp1173
I51
s(I24
I9
tp1174
I57
s(I62
I26
tp1175
I46
s(I27
I20
tp1176
I43
s(I49
I7
tp1177
I52
s(I13
I25
tp1178
I52
s(I52
I20
tp1179
I42
s(I0
I50
tp1180
I40
s(I20
I61
tp1181
I31
s(I3
I31
tp1182
I56
s(I25
I46
tp1183
I19
s(I28
I13
tp1184
I49
s(I50
I30
tp1185
I30
s(I31
I0
tp1186
I59
s(I53
I51
tp1187
I14
s(I57
I48
tp1188
I19
s(I40
I24
tp1189
I26
s(I21
I26
tp1190
I43
s(I4
I38
tp1191
I48
s(I43
I5
tp1192
I48
s(I8
I33
tp1193
I49
s(I7
I27
tp1194
I56
s(I46
I18
tp1195
I38
s(I29
I42
tp1196
I19
s(I33
I47
tp1197
I10
s(I16
I33
tp1198
I152
s(I36
I44
tp1199
I10
s(I58
I17
tp1200
I51
s(I41
I63
tp1201
I14
s(I22
I11
tp1202
I57
s(I61
I36
tp1203
I35
s(I44
I28
tp1204
I26
s(I9
I6
tp1205
I75
s(I48
I39
tp1206
I19
s(I12
I53
tp1207
I31
s(I34
I6
tp1208
I50
s(I15
I24
tp1209
I51
s(I37
I11
tp1210
I42
s(I24
I16
tp1211
I50
s(I62
I29
tp1212
I43
s(I45
I59
tp1213
I14
s(I49
I56
tp1214
I15
s(I13
I18
tp1215
I59
s(I52
I19
tp1216
I43
s(I0
I9
tp1217
I81
s(I38
I26
tp1218
I26
s(I3
I4
tp1219
I83
s(I25
I55
tp1220
I20
s(I28
I4
tp1221
I58
s(I50
I25
tp1222
I35
s(I31
I9
tp1223
I50
s(I53
I60
tp1224
I23
s(I1
I46
tp1225
I43
s(I57
I57
tp1226
I24
s(I40
I31
tp1227
I19
s(I21
I35
tp1228
I155
s(I4
I45
tp1229
I41
s(I8
I40
tp1230
I42
s(I7
I16
tp1231
I67
s(I46
I21
tp1232
I35
s(I29
I35
tp1233
I26
s(I33
I32
tp1234
I25
s(I16
I24
tp1235
I50
s(I36
I43
tp1236
I11
s(I58
I24
tp1237
I44
s(I41
I32
tp1238
I19
s(I22
I2
tp1239
I66
s(I61
I61
tp1240
I32
s(I44
I27
tp1241
I27
s(I9
I15
tp1242
I66
s(I12
I44
tp1243
I34
s(I34
I1
tp1244
I55
s(I17
I63
tp1245
I36
s(I37
I52
tp1246
I5
s(I59
I11
tp1247
I58
s(I24
I23
tp1248
I43
s(I62
I4
tp1249
I68
s(I45
I52
tp1250
I7
s(I10
I22
tp1251
I58
s(I49
I49
tp1252
I10
s(I13
I11
tp1253
I66
s(I52
I26
tp1254
I36
s(I0
I0
tp1255
I90
s(I38
I29
tp1256
I23
s(I3
I13
tp1257
I74
s(I25
I56
tp1258
I21
s(I28
I3
tp1259
I59
s(I50
I16
tp1260
I44
s(I53
I5
tp1261
I58
s(I1
I39
tp1262
I50
s(I40
I6
tp1263
I44
s(I21
I44
tp1264
I25
s(I4
I20
tp1265
I66
s(I8
I47
tp1266
I35
s(I7
I9
tp1267
I74
s(I46
I28
tp1268
I28
s(I29
I60
tp1269
I21
s(I33
I57
tp1270
I14
s(I16
I31
tp1271
I352
s(I54
I44
tp1272
I20
s(I58
I35
tp1273
I33
s(I41
I41
tp1274
I10
s(I22
I5
tp1275
I63
s(I5
I51
tp1276
I36
s(I61
I54
tp1277
I25
s(I44
I18
tp1278
I36
s(I9
I48
tp1279
I33
s(I47
I7
tp1280
I50
s(I12
I43
tp1281
I134
s(I34
I24
tp1282
I32
s(I17
I48
tp1283
I25
s(I37
I61
tp1284
I14
s(I59
I0
tp1285
I69
s(I24
I30
tp1286
I333
s(I62
I15
tp1287
I57
s(I45
I45
tp1288
I10
s(I10
I17
tp1289
I63
s(I49
I42
tp1290
I17
s(I13
I4
tp1291
I73
s(I0
I7
tp1292
I83
s(I38
I20
tp1293
I32
s(I25
I1
tp1294
I64
s(I63
I20
tp1295
I53
s(I28
I26
tp1296
I36
s(I50
I11
tp1297
I49
s(I53
I14
tp1298
I49
s(I1
I56
tp1299
I45
s(I40
I13
tp1300
I37
s(I21
I53
tp1301
I22
s(I4
I19
tp1302
I67
s(I26
I32
tp1303
I131
s(I7
I6
tp1304
I77
s(I46
I39
tp1305
I17
s(I29
I53
tp1306
I14
s(I33
I50
tp1307
I7
s(I16
I22
tp1308
I52
s(I54
I39
tp1309
I25
s(I19
I3
tp1310
I68
s(I58
I42
tp1311
I26
s(I41
I18
tp1312
I33
s(I22
I28
tp1313
I141
s(I5
I60
tp1314
I45
s(I44
I9
tp1315
I45
s(I9
I57
tp1316
I38
s(I47
I12
tp1317
I45
s(I12
I34
tp1318
I48
s(I34
I19
tp1319
I37
s(I17
I41
tp1320
I329
s(I37
I38
tp1321
I15
s(I59
I25
tp1322
I44
s(I42
I51
tp1323
I3
s(I62
I54
tp1324
I26
s(I45
I38
tp1325
I17
s(I10
I24
tp1326
I56
s(I49
I35
tp1327
I24
s(I13
I61
tp1328
I38
s(I35
I16
tp1329
I39
s(I0
I30
tp1330
I60
s(I38
I15
tp1331
I37
s(I25
I10
tp1332
I55
s(I63
I29
tp1333
I44
s(I28
I17
tp1334
I45
s(I50
I2
tp1335
I58
s(I14
I36
tp1336
I48
s(I53
I23
tp1337
I40
s(I1
I49
tp1338
I40
s(I21
I62
tp1339
I31
s(I4
I26
tp1340
I60
s(I26
I43
tp1341
I120
s(I46
I46
tp1342
I10
s(I29
I14
tp1343
I47
s(I51
I33
tp1344
I28
s(I16
I13
tp1345
I61
s(I54
I62
tp1346
I26
s(I19
I8
tp1347
I63
s(I58
I53
tp1348
I21
s(I41
I27
tp1349
I24
s(I22
I23
tp1350
I45
s(I5
I37
tp1351
I48
s(I44
I0
tp1352
I54
s(I9
I34
tp1353
I47
s(I47
I21
tp1354
I36
s(I30
I55
tp1355
I15
s(I34
I42
tp1356
I14
s(I17
I34
tp1357
I53
s(I56
I3
tp1358
I63
s(I37
I47
tp1359
I6
s(I59
I30
tp1360
I39
s(I42
I58
tp1361
I10
s(I23
I12
tp1362
I55
s(I62
I57
tp1363
I29
s(I45
I31
tp1364
I24
s(I10
I3
tp1365
I77
s(I49
I36
tp1366
I23
s(I13
I54
tp1367
I31
s(I35
I25
tp1368
I30
s(I0
I21
tp1369
I69
s(I38
I6
tp1370
I46
s(I25
I19
tp1371
I46
s(I63
I26
tp1372
I47
s(I50
I61
tp1373
I21
s(I14
I47
tp1374
I29
s(I53
I16
tp1375
I47
s(I1
I10
tp1376
I79
s(I39
I29
tp1377
I22
s(I4
I1
tp1378
I85
s(I26
I50
tp1379
I14
s(I46
I49
tp1380
I7
s(I29
I7
tp1381
I54
s(I51
I38
tp1382
I23
s(I16
I4
tp1383
I70
s(I54
I49
tp1384
I15
s(I19
I17
tp1385
I54
s(I2
I43
tp1386
I45
s(I58
I60
tp1387
I28
s(I41
I28
tp1388
I23
s(I22
I46
tp1389
I22
s(I5
I46
tp1390
I39
s(I9
I43
tp1391
I38
s(I47
I18
tp1392
I39
s(I30
I62
tp1393
I22
s(I34
I37
tp1394
I19
s(I17
I27
tp1395
I46
s(I56
I10
tp1396
I56
s(I37
I40
tp1397
I13
s(I59
I23
tp1398
I46
s(I42
I37
tp1399
I15
s(I23
I5
tp1400
I62
s(I62
I32
tp1401
I40
s(I45
I24
tp1402
I31
s(I10
I10
tp1403
I70
s(I13
I47
tp1404
I30
s(I35
I30
tp1405
I25
s(I18
I58
tp1406
I30
s(I38
I57
tp1407
I9
s(I60
I14
tp1408
I56
s(I25
I20
tp1409
I45
s(I63
I3
tp1410
I70
s(I11
I25
tp1411
I54
s(I50
I52
tp1412
I12
s(I14
I54
tp1413
I30
s(I53
I25
tp1414
I38
s(I1
I3
tp1415
I86
s(I39
I26
tp1416
I25
s(I4
I8
tp1417
I78
s(I26
I61
tp1418
I25
s(I46
I56
tp1419
I12
s(I29
I0
tp1420
I61
s(I51
I47
tp1421
I14
s(I54
I8
tp1422
I56
s(I19
I22
tp1423
I49
s(I2
I34
tp1424
I54
s(I41
I5
tp1425
I46
s(I22
I33
tp1426
I356
s(I5
I23
tp1427
I62
s(I9
I44
tp1428
I37
s(I47
I27
tp1429
I30
s(I30
I33
tp1430
I27
s(I34
I60
tp1431
I16
s(I17
I28
tp1432
I146
s(I56
I17
tp1433
I49
s(I55
I43
tp1434
I22
s(I59
I44
tp1435
I25
s(I42
I44
tp1436
I8
s(I23
I2
tp1437
I65
s(I6
I62
tp1438
I46
s(I62
I43
tp1439
I29
s(I45
I17
tp1440
I38
s(I10
I53
tp1441
I33
s(I32
I10
tp1442
I48
s(I13
I40
tp1443
I340
s(I35
I7
tp1444
I48
s(I18
I53
tp1445
I25
s(I38
I48
tp1446
I4
s(I60
I5
tp1447
I65
s(I25
I29
tp1448
I234
s(I63
I8
tp1449
I65
s(I11
I30
tp1450
I150
s(I50
I47
tp1451
I13
s(I14
I57
tp1452
I33
s(I1
I4
tp1453
I85
s(I39
I19
tp1454
I32
s(I26
I4
tp1455
I60
s(I48
I25
tp1456
I33
s(I29
I25
tp1457
I36
s(I51
I52
tp1458
I13
s(I54
I3
tp1459
I61
s(I19
I31
tp1460
I355
s(I2
I61
tp1461
I49
s(I41
I14
tp1462
I37
s(I22
I56
tp1463
I24
s(I5
I16
tp1464
I69
s(I27
I47
tp1465
I16
s(I47
I32
tp1466
I25
s(I30
I40
tp1467
I20
s(I34
I55
tp1468
I11
s(I17
I21
tp1469
I52
s(I56
I24
tp1470
I42
s(I55
I32
tp1471
I33
s(I20
I6
tp1472
I64
s(I59
I37
tp1473
I32
s(I42
I23
tp1474
I29
s(I23
I27
tp1475
I40
s(I6
I49
tp1476
I35
s(I45
I10
tp1477
I45
s(I10
I60
tp1478
I40
s(I32
I1
tp1479
I57
s(I13
I33
tp1480
I149
s(I35
I12
tp1481
I43
s(I18
I44
tp1482
I28
s(I38
I43
tp1483
I9
s(I60
I28
tp1484
I42
s(I43
I60
tp1485
I13
s(I63
I49
tp1486
I24
s(I11
I23
tp1487
I56
s(I50
I38
tp1488
I22
s(I14
I0
tp1489
I76
s(I36
I21
tp1490
I33
s(I1
I29
tp1491
I60
s(I39
I8
tp1492
I43
s(I26
I15
tp1493
I49
s(I48
I16
tp1494
I42
s(I29
I18
tp1495
I43
s(I51
I61
tp1496
I22
s(I15
I35
tp1497
I50
s(I54
I26
tp1498
I38
s(I19
I36
tp1499
I53
s(I2
I52
tp1500
I40
s(I22
I51
tp1501
I19
s(I5
I25
tp1502
I60
s(I27
I36
tp1503
I27
s(I47
I41
tp1504
I16
s(I30
I19
tp1505
I41
s(I52
I36
tp1506
I26
s(I17
I14
tp1507
I59
s(I56
I31
tp1508
I35
s(I55
I57
tp1509
I22
s(I20
I13
tp1510
I57
s(I59
I58
tp1511
I27
s(I42
I30
tp1512
I22
s(I23
I16
tp1513
I51
s(I6
I40
tp1514
I44
s(I45
I3
tp1515
I52
s(I10
I39
tp1516
I41
s(I32
I24
tp1517
I34
s(I31
I48
tp1518
I11
s(I35
I53
tp1519
I8
s(I18
I39
tp1520
I251
s(I57
I0
tp1521
I67
s(I38
I34
tp1522
I18
s(I60
I27
tp1523
I43
s(I43
I53
tp1524
I6
s(I8
I17
tp1525
I65
s(I63
I62
tp1526
I35
s(I11
I12
tp1527
I67
s(I50
I33
tp1528
I27
s(I14
I11
tp1529
I65
s(I36
I28
tp1530
I26
s(I1
I22
tp1531
I67
s(I39
I1
tp1532
I50
s(I26
I22
tp1533
I42
s(I48
I23
tp1534
I35
s(I51
I2
tp1535
I59
s(I15
I40
tp1536
I348
s(I54
I29
tp1537
I35
s(I19
I45
tp1538
I26
s(I2
I15
tp1539
I73
s(I24
I32
tp1540
I331
s(I5
I2
tp1541
I83
s(I27
I61
tp1542
I24
s(I47
I54
tp1543
I11
s(I30
I26
tp1544
I34
s(I52
I35
tp1545
I27
s(I17
I7
tp1546
I66
s(I56
I38
tp1547
I28
s(I55
I54
tp1548
I19
s(I20
I20
tp1549
I50
s(I3
I52
tp1550
I39
s(I59
I51
tp1551
I20
s(I42
I25
tp1552
I27
s(I23
I41
tp1553
I323
s(I6
I35
tp1554
I49
s(I10
I46
tp1555
I34
s(I32
I31
tp1556
I27
s(I31
I57
tp1557
I16
s(I35
I58
tp1558
I13
s(I18
I30
tp1559
I345
s(I57
I9
tp1560
I58
s(I38
I37
tp1561
I15
s(I60
I18
tp1562
I52
s(I43
I42
tp1563
I11
s(I8
I24
tp1564
I58
s(I63
I39
tp1565
I34
s(I11
I5
tp1566
I74
s(I14
I18
tp1567
I58
s(I36
I27
tp1568
I27
s(I39
I62
tp1569
I13
s(I61
I13
tp1570
I58
s(I26
I17
tp1571
I47
s(I48
I14
tp1572
I44
s(I12
I28
tp1573
I151
s(I51
I11
tp1574
I50
s(I15
I49
tp1575
I26
s(I54
I20
tp1576
I44
s(I19
I50
tp1577
I21
s(I2
I6
tp1578
I82
s(I24
I39
tp1579
I324
s(I5
I11
tp1580
I74
s(I27
I50
tp1581
I13
s(I47
I63
tp1582
I20
s(I30
I29
tp1583
I31
s(I52
I42
tp1584
I20
s(I56
I45
tp1585
I21
s(I55
I15
tp1586
I50
s(I20
I19
tp1587
I51
s(I3
I61
tp1588
I48
s(I42
I0
tp1589
I52
s(I23
I38
tp1590
I425
s(I6
I26
tp1591
I58
s(I10
I41
tp1592
I39
s(I32
I22
tp1593
I36
s(I31
I38
tp1594
I21
s(I35
I35
tp1595
I20
s(I18
I25
tp1596
I47
s(I57
I18
tp1597
I49
s(I40
I54
tp1598
I4
s(I60
I41
tp1599
I29
s(I43
I35
tp1600
I18
s(I8
I31
tp1601
I51
s(I7
I57
tp1602
I40
s(I63
I44
tp1603
I29
s(I11
I58
tp1604
I37
s(I33
I9
tp1605
I48
s(I14
I21
tp1606
I55
s(I36
I2
tp1607
I52
s(I39
I55
tp1608
I6
s(I61
I6
tp1609
I65
s(I26
I24
tp1610
I40
s(I48
I5
tp1611
I53
s(I12
I27
tp1612
I51
s(I51
I16
tp1613
I45
s(I15
I62
tp1614
I37
s(I19
I59
tp1615
I30
s(I2
I1
tp1616
I87
s(I24
I46
tp1617
I20
s(I27
I11
tp1618
I52
s(I49
I26
tp1619
I33
s(I30
I4
tp1620
I56
s(I52
I49
tp1621
I13
s(I56
I52
tp1622
I18
s(I55
I4
tp1623
I61
s(I20
I26
tp1624
I44
s(I3
I34
tp1625
I53
s(I42
I11
tp1626
I41
s(I23
I63
tp1627
I30
s(I6
I29
tp1628
I55
s(I28
I42
tp1629
I20
s(I32
I45
tp1630
I13
s(I31
I47
tp1631
I12
s(I35
I40
tp1632
I15
s(I18
I16
tp1633
I56
s(I57
I27
tp1634
I40
s(I40
I61
tp1635
I11
s(I21
I5
tp1636
I64
s(I60
I32
tp1637
I38
s(I43
I24
tp1638
I29
s(I8
I6
tp1639
I76
s(I7
I54
tp1640
I37
s(I11
I51
tp1641
I30
s(I33
I2
tp1642
I55
s(I14
I28
tp1643
I149
s(I36
I9
tp1644
I45
s(I39
I44
tp1645
I7
s(I61
I31
tp1646
I40
s(I44
I57
tp1647
I11
s(I48
I60
tp1648
I18
s(I12
I18
tp1649
I60
s(I51
I25
tp1650
I36
s(I15
I7
tp1651
I68
s(I37
I22
tp1652
I31
s(I2
I24
tp1653
I64
s(I24
I53
tp1654
I19
s(I27
I0
tp1655
I63
s(I49
I19
tp1656
I40
s(I30
I15
tp1657
I45
s(I52
I56
tp1658
I18
s(I0
I46
tp1659
I44
s(I56
I59
tp1660
I25
s(I55
I29
tp1661
I36
s(I20
I33
tp1662
I156
s(I3
I43
tp1663
I44
s(I23
I52
tp1664
I19
s(I6
I20
tp1665
I64
s(I28
I33
tp1666
I29
s(I32
I36
tp1667
I22
s(I31
I20
tp1668
I39
s(I53
I39
tp1669
I24
s(I18
I11
tp1670
I61
s(I57
I28
tp1671
I39
s(I40
I36
tp1672
I14
s(I21
I14
tp1673
I55
s(I60
I63
tp1674
I33
s(I43
I17
tp1675
I36
s(I8
I13
tp1676
I69
s(I7
I47
tp1677
I36
s(I11
I40
tp1678
I140
s(I33
I27
tp1679
I30
s(I16
I61
tp1680
I35
s(I36
I48
tp1681
I6
s(I58
I5
tp1682
I63
s(I39
I37
tp1683
I14
s(I61
I24
tp1684
I47
s(I44
I48
tp1685
I6
s(I9
I18
tp1686
I63
s(I48
I51
tp1687
I9
s(I12
I9
tp1688
I69
s(I51
I30
tp1689
I31
s(I15
I12
tp1690
I63
s(I37
I31
tp1691
I22
s(I2
I19
tp1692
I69
s(I24
I60
tp1693
I26
s(I27
I25
tp1694
I38
s(I49
I20
tp1695
I39
s(I52
I7
tp1696
I55
s(I0
I37
tp1697
I53
s(I55
I26
tp1698
I39
s(I20
I40
tp1699
I353
s(I3
I16
tp1700
I71
s(I25
I35
tp1701
I228
s(I6
I15
tp1702
I69
s(I28
I56
tp1703
I18
s(I32
I59
tp1704
I17
s(I31
I29
tp1705
I30
s(I53
I32
tp1706
I31
s(I18
I2
tp1707
I70
s(I57
I37
tp1708
I30
s(I40
I43
tp1709
I7
s(I21
I23
tp1710
I46
s(I4
I49
tp1711
I37
s(I60
I54
tp1712
I24
s(I43
I22
tp1713
I31
s(I8
I52
tp1714
I34
s(I7
I36
tp1715
I47
s(I46
I1
tp1716
I55
s(I11
I33
tp1717
I147
s(I33
I28
tp1718
I29
s(I16
I52
tp1719
I26
s(I36
I63
tp1720
I17
s(I58
I12
tp1721
I56
s(I39
I34
tp1722
I17
s(I61
I17
tp1723
I54
s(I44
I47
tp1724
I7
s(I9
I27
tp1725
I54
s(I48
I42
tp1726
I16
s(I12
I0
tp1727
I78
s(I15
I21
tp1728
I54
s(I37
I24
tp1729
I29
s(I24
I3
tp1730
I63
s(I62
I16
tp1731
I56
s(I27
I30
tp1732
I33
s(I49
I13
tp1733
I46
s(I13
I31
tp1734
I349
s(I52
I14
tp1735
I48
s(I0
I60
tp1736
I50
s(I55
I19
tp1737
I46
s(I20
I55
tp1738
I25
s(I3
I25
tp1739
I62
s(I25
I36
tp1740
I227
s(I6
I6
tp1741
I78
s(I28
I55
tp1742
I17
s(I32
I50
tp1743
I8
s(I31
I26
tp1744
I33
s(I53
I41
tp1745
I22
s(I57
I46
tp1746
I21
s(I40
I18
tp1747
I32
s(I21
I16
tp1748
I53
s(I4
I56
tp1749
I42
s(I43
I15
tp1750
I38
s(I8
I59
tp1751
I41
s(I7
I29
tp1752
I54
s(I46
I8
tp1753
I48
s(I11
I38
tp1754
I142
s(I33
I21
tp1755
I36
s(I16
I43
tp1756
I130
s(I36
I38
tp1757
I16
s(I58
I23
tp1758
I45
s(I41
I53
tp1759
I4
s(I61
I42
tp1760
I29
s(I44
I38
tp1761
I16
s(I9
I28
tp1762
I53
s(I48
I33
tp1763
I25
s(I12
I63
tp1764
I41
s(I34
I12
tp1765
I44
s(I15
I18
tp1766
I57
s(I37
I1
tp1767
I52
s(I24
I10
tp1768
I56
s(I62
I27
tp1769
I45
s(I27
I23
tp1770
I40
s(I49
I6
tp1771
I53
s(I13
I24
tp1772
I53
s(I52
I21
tp1773
I41
s(I0
I51
tp1774
I41
s(I20
I62
tp1775
I32
s(I3
I30
tp1776
I57
s(I25
I45
tp1777
I20
s(I28
I14
tp1778
I48
s(I50
I31
tp1779
I29
s(I31
I3
tp1780
I56
s(I53
I50
tp1781
I13
s(I57
I55
tp1782
I22
s(I40
I25
tp1783
I25
s(I21
I25
tp1784
I44
s(I4
I39
tp1785
I47
s(I43
I4
tp1786
I49
s(I8
I34
tp1787
I48
s(I7
I26
tp1788
I57
s(I46
I19
tp1789
I37
s(I29
I41
tp1790
I20
s(I33
I46
tp1791
I11
s(I16
I34
tp1792
I52
s(I36
I45
tp1793
I9
s(I58
I30
tp1794
I38
s(I41
I62
tp1795
I13
s(I22
I8
tp1796
I60
s(I61
I35
tp1797
I36
s(I44
I29
tp1798
I25
s(I9
I5
tp1799
I76
s(I12
I54
tp1800
I32
s(I34
I7
tp1801
I49
s(I15
I27
tp1802
I48
s(I37
I10
tp1803
I43
s(I24
I17
tp1804
I49
s(I62
I2
tp1805
I70
s(I45
I58
tp1806
I13
s(I49
I63
tp1807
I22
s(I13
I17
tp1808
I60
s(I52
I28
tp1809
I34
s(I0
I10
tp1810
I80
s(I38
I27
tp1811
I25
s(I3
I7
tp1812
I80
s(I25
I54
tp1813
I19
s(I28
I5
tp1814
I57
s(I50
I22
tp1815
I38
s(I31
I8
tp1816
I51
s(I53
I59
tp1817
I22
s(I1
I45
tp1818
I44
s(I57
I56
tp1819
I23
s(I40
I0
tp1820
I50
s(I21
I34
tp1821
I156
s(I4
I46
tp1822
I40
s(I8
I41
tp1823
I41
s(I7
I19
tp1824
I64
s(I46
I26
tp1825
I30
s(I29
I34
tp1826
I27
s(I33
I39
tp1827
I18
s(I16
I25
tp1828
I49
s(I54
I42
tp1829
I22
s(I58
I25
tp1830
I43
s(I41
I39
tp1831
I12
s(I22
I3
tp1832
I65
s(I61
I60
tp1833
I31
s(I44
I20
tp1834
I34
s(I9
I14
tp1835
I67
s(I12
I45
tp1836
I33
s(I34
I30
tp1837
I26
s(I17
I62
tp1838
I35
s(I37
I51
tp1839
I4
s(I59
I10
tp1840
I59
s(I24
I24
tp1841
I42
s(I62
I5
tp1842
I67
s(I45
I51
tp1843
I6
s(I10
I23
tp1844
I57
s(I49
I48
tp1845
I11
s(I13
I10
tp1846
I67
s(I52
I27
tp1847
I35
s(I0
I1
tp1848
I89
s(I38
I18
tp1849
I34
s(I3
I12
tp1850
I75
s(I25
I63
tp1851
I28
s(I28
I28
tp1852
I34
s(I50
I17
tp1853
I43
s(I53
I4
tp1854
I59
s(I1
I38
tp1855
I51
s(I40
I7
tp1856
I43
s(I21
I43
tp1857
I125
s(I4
I21
tp1858
I65
s(I26
I38
tp1859
I125
s(I7
I8
tp1860
I75
s(I46
I29
tp1861
I27
s(I29
I59
tp1862
I20
s(I33
I56
tp1863
I13
s(I16
I16
tp1864
I58
s(I54
I45
tp1865
I19
s(I58
I32
tp1866
I36
s(I41
I40
tp1867
I11
s(I22
I26
tp1868
I42
s(I5
I50
tp1869
I35
s(I61
I53
tp1870
I24
s(I44
I19
tp1871
I35
s(I9
I55
tp1872
I36
s(I47
I6
tp1873
I51
s(I12
I36
tp1874
I46
s(I34
I25
tp1875
I31
s(I17
I55
tp1876
I28
s(I37
I60
tp1877
I13
s(I59
I3
tp1878
I66
s(I24
I31
tp1879
I332
s(I62
I12
tp1880
I60
s(I45
I44
tp1881
I11
s(I10
I30
tp1882
I50
s(I49
I41
tp1883
I18
s(I13
I3
tp1884
I74
s(I0
I24
tp1885
I66
s(I38
I21
tp1886
I31
s(I25
I0
tp1887
I65
s(I63
I23
tp1888
I50
s(I28
I27
tp1889
I35
s(I50
I8
tp1890
I52
s(I14
I34
tp1891
I50
s(I53
I13
tp1892
I50
s(I1
I63
tp1893
I52
s(I40
I14
tp1894
I36
s(I21
I52
tp1895
I21
s(I4
I28
tp1896
I58
s(I26
I33
tp1897
I130
s(I7
I1
tp1898
I82
s(I46
I36
tp1899
I20
s(I29
I52
tp1900
I13
s(I33
I49
tp1901
I8
s(I16
I23
tp1902
I51
s(I54
I36
tp1903
I28
s(I19
I2
tp1904
I69
s(I58
I43
tp1905
I25
s(I41
I17
tp1906
I34
s(I22
I29
tp1907
I241
s(I5
I59
tp1908
I44
s(I44
I10
tp1909
I44
s(I9
I56
tp1910
I37
s(I47
I15
tp1911
I42
s(I12
I35
tp1912
I47
s(I34
I16
tp1913
I40
s(I17
I40
tp1914
I350
s(I37
I37
tp1915
I16
s(I59
I24
tp1916
I45
s(I42
I48
tp1917
I4
s(I62
I55
tp1918
I27
s(I45
I37
tp1919
I18
s(I10
I25
tp1920
I55
s(I49
I34
tp1921
I25
s(I13
I60
tp1922
I37
s(I35
I19
tp1923
I36
s(I0
I31
tp1924
I59
s(I38
I12
tp1925
I40
s(I25
I9
tp1926
I56
s(I63
I28
tp1927
I45
s(I28
I18
tp1928
I44
s(I50
I3
tp1929
I57
s(I14
I37
tp1930
I47
s(I53
I22
tp1931
I41
s(I1
I48
tp1932
I41
s(I21
I61
tp1933
I30
s(I4
I27
tp1934
I59
s(I26
I40
tp1935
I123
s(I46
I47
tp1936
I9
s(I29
I13
tp1937
I48
s(I51
I32
tp1938
I29
s(I16
I14
tp1939
I60
s(I54
I63
tp1940
I27
s(I19
I11
tp1941
I60
s(I58
I50
tp1942
I18
s(I41
I26
tp1943
I25
s(I22
I20
tp1944
I48
s(I5
I36
tp1945
I49
s(I44
I1
tp1946
I53
s(I9
I33
tp1947
I48
s(I47
I20
tp1948
I37
s(I30
I52
tp1949
I12
s(I34
I43
tp1950
I13
s(I17
I33
tp1951
I153
s(I56
I4
tp1952
I62
s(I37
I46
tp1953
I7
s(I59
I17
tp1954
I52
s(I42
I59
tp1955
I11
s(I23
I15
tp1956
I52
s(I62
I62
tp1957
I34
s(I45
I30
tp1958
I25
s(I10
I0
tp1959
I80
s(I13
I53
tp1960
I30
s(I35
I24
tp1961
I31
s(I0
I22
tp1962
I68
s(I38
I7
tp1963
I45
s(I25
I18
tp1964
I47
s(I63
I5
tp1965
I68
s(I50
I58
tp1966
I18
s(I14
I44
tp1967
I32
s(I53
I31
tp1968
I32
s(I1
I9
tp1969
I80
s(I39
I28
tp1970
I23
s(I4
I2
tp1971
I84
s(I26
I51
tp1972
I15
s(I46
I54
tp1973
I10
s(I29
I6
tp1974
I55
s(I51
I41
tp1975
I20
s(I16
I5
tp1976
I69
s(I54
I54
tp1977
I18
s(I19
I16
tp1978
I55
s(I2
I40
tp1979
I48
s(I58
I61
tp1980
I29
s(I41
I3
tp1981
I48
s(I22
I47
tp1982
I21
s(I5
I45
tp1983
I40
s(I9
I42
tp1984
I39
s(I47
I29
tp1985
I28
s(I30
I63
tp1986
I23
s(I34
I34
tp1987
I22
s(I17
I26
tp1988
I47
s(I56
I11
tp1989
I55
s(I55
I45
tp1990
I20
s(I59
I22
tp1991
I47
s(I42
I34
tp1992
I18
s(I23
I4
tp1993
I63
s(I62
I33
tp1994
I39
s(I45
I23
tp1995
I32
s(I10
I11
tp1996
I69
s(I13
I46
tp1997
I31
s(I35
I1
tp1998
I54
s(I18
I59
tp1999
I31
s(I38
I62
tp2000
I14
s(I60
I15
tp2001
I55
s(I25
I27
tp2002
I38
s(I63
I2
tp2003
I71
s(I11
I24
tp2004
I55
s(I50
I53
tp2005
I13
s(I14
I55
tp2006
I31
s(I53
I24
tp2007
I39
s(I1
I2
tp2008
I87
s(I39
I21
tp2009
I30
s(I4
I9
tp2010
I77
s(I26
I58
tp2011
I22
s(I46
I57
tp2012
I13
s(I29
I31
tp2013
I30
s(I51
I46
tp2014
I15
s(I54
I9
tp2015
I55
s(I19
I25
tp2016
I46
s(I2
I35
tp2017
I53
s(I41
I4
tp2018
I47
s(I22
I38
tp2019
I353
s(I5
I22
tp2020
I63
s(I27
I41
tp2021
I22
s(I47
I26
tp2022
I31
s(I30
I38
tp2023
I22
s(I34
I61
tp2024
I17
s(I17
I19
tp2025
I54
s(I56
I18
tp2026
I48
s(I55
I42
tp2027
I23
s(I59
I47
tp2028
I22
s(I42
I45
tp2029
I7
s(I23
I29
tp2030
I240
s(I6
I63
tp2031
I47
s(I62
I40
tp2032
I32
s(I45
I16
tp2033
I39
s(I10
I50
tp2034
I30
s(I32
I11
tp2035
I47
s(I13
I39
tp2036
I246
s(I35
I6
tp2037
I49
s(I18
I50
tp2038
I22
s(I38
I49
tp2039
I3
s(I60
I6
tp2040
I64
s(I25
I28
tp2041
I138
s(I63
I11
tp2042
I62
s(I11
I17
tp2043
I62
s(I50
I44
tp2044
I16
s(I14
I62
tp2045
I38
s(I1
I27
tp2046
I62
s(I39
I18
tp2047
I33
s(I26
I5
tp2048
I59
s(I48
I26
tp2049
I32
s(I29
I24
tp2050
I37
s(I51
I55
tp2051
I16
s(I15
I37
tp2052
I48
s(I54
I0
tp2053
I64
s(I19
I30
tp2054
I344
s(I2
I58
tp2055
I46
s(I41
I13
tp2056
I38
s(I22
I57
tp2057
I25
s(I5
I31
tp2058
I54
s(I27
I46
tp2059
I17
s(I47
I35
tp2060
I22
s(I30
I41
tp2061
I19
s(I34
I52
tp2062
I8
s(I17
I20
tp2063
I53
s(I56
I25
tp2064
I41
s(I55
I35
tp2065
I30
s(I20
I7
tp2066
I63
s(I59
I36
tp2067
I33
s(I42
I20
tp2068
I32
s(I23
I26
tp2069
I41
s(I6
I54
tp2070
I38
s(I45
I9
tp2071
I46
s(I10
I61
tp2072
I41
s(I32
I2
tp2073
I56
s(I13
I32
tp2074
I249
s(I35
I15
tp2075
I40
s(I18
I45
tp2076
I27
s(I38
I40
tp2077
I12
s(I60
I29
tp2078
I41
s(I43
I63
tp2079
I16
s(I63
I48
tp2080
I25
s(I11
I22
tp2081
I57
s(I50
I39
tp2082
I21
s(I14
I1
tp2083
I75
s(I36
I22
tp2084
I32
s(I1
I28
tp2085
I61
s(I39
I11
tp2086
I40
s(I26
I12
tp2087
I52
s(I48
I17
tp2088
I41
s(I29
I17
tp2089
I44
s(I51
I60
tp2090
I21
s(I15
I34
tp2091
I51
s(I54
I27
tp2092
I37
s(I19
I39
tp2093
I252
s(I2
I53
tp2094
I41
s(I22
I48
tp2095
I20
s(I5
I24
tp2096
I61
s(I27
I39
tp2097
I24
s(I47
I40
tp2098
I17
s(I30
I16
tp2099
I44
s(I52
I37
tp2100
I25
s(I17
I13
tp2101
I60
s(I56
I32
tp2102
I34
s(I55
I56
tp2103
I21
s(I20
I14
tp2104
I56
s(I59
I61
tp2105
I30
s(I42
I31
tp2106
I21
s(I23
I19
tp2107
I48
s(I6
I41
tp2108
I43
s(I45
I2
tp2109
I53
s(I10
I36
tp2110
I44
s(I32
I25
tp2111
I33
s(I31
I51
tp2112
I10
s(I35
I52
tp2113
I7
s(I18
I36
tp2114
I52
s(I57
I7
tp2115
I60
s(I38
I35
tp2116
I17
s(I60
I20
tp2117
I50
s(I43
I52
tp2118
I5
s(I8
I18
tp2119
I64
s(I63
I57
tp2120
I30
s(I11
I15
tp2121
I64
s(I14
I8
tp2122
I68
s(I36
I29
tp2123
I25
s(I1
I21
tp2124
I68
s(I39
I0
tp2125
I51
s(I26
I23
tp2126
I41
s(I48
I8
tp2127
I50
s(I51
I5
tp2128
I56
s(I15
I43
tp2129
I131
s(I54
I18
tp2130
I46
s(I19
I44
tp2131
I27
s(I2
I12
tp2132
I76
s(I24
I33
tp2133
I330
s(I5
I1
tp2134
I84
s(I27
I60
tp2135
I23
s(I47
I49
tp2136
I8
s(I30
I27
tp2137
I33
s(I52
I44
tp2138
I18
s(I17
I6
tp2139
I67
s(I56
I39
tp2140
I27
s(I55
I49
tp2141
I16
s(I20
I21
tp2142
I49
s(I3
I55
tp2143
I42
s(I59
I50
tp2144
I19
s(I42
I6
tp2145
I46
s(I23
I40
tp2146
I423
s(I6
I32
tp2147
I52
s(I10
I47
tp2148
I33
s(I32
I16
tp2149
I42
s(I31
I56
tp2150
I15
s(I35
I61
tp2151
I16
s(I18
I31
tp2152
I354
s(I57
I8
tp2153
I59
s(I40
I48
tp2154
I2
s(I60
I19
tp2155
I51
s(I43
I45
tp2156
I8
s(I8
I25
tp2157
I57
s(I63
I38
tp2158
I35
s(I11
I4
tp2159
I75
s(I14
I19
tp2160
I57
s(I36
I4
tp2161
I50
s(I39
I57
tp2162
I8
s(I61
I12
tp2163
I59
s(I26
I30
tp2164
I133
s(I48
I15
tp2165
I43
s(I12
I29
tp2166
I251
s(I51
I10
tp2167
I51
s(I15
I48
tp2168
I27
s(I54
I21
tp2169
I43
s(I19
I53
tp2170
I24
s(I2
I7
tp2171
I81
s(I24
I40
tp2172
I323
s(I5
I10
tp2173
I75
s(I27
I53
tp2174
I16
s(I47
I62
tp2175
I19
s(I30
I2
tp2176
I58
s(I52
I43
tp2177
I19
s(I56
I46
tp2178
I20
s(I55
I14
tp2179
I51
s(I20
I28
tp2180
I143
s(I3
I60
tp2181
I47
s(I42
I1
tp2182
I51
s(I23
I33
tp2183
I430
s(I6
I27
tp2184
I57
s(I28
I44
tp2185
I18
s(I32
I23
tp2186
I35
s(I31
I33
tp2187
I26
s(I35
I34
tp2188
I21
s(I18
I22
tp2189
I50
s(I57
I17
tp2190
I50
s(I40
I55
tp2191
I5
s(I60
I42
tp2192
I28
s(I43
I34
tp2193
I19
s(I8
I0
tp2194
I82
s(I7
I56
tp2195
I39
s(I63
I47
tp2196
I26
s(I11
I61
tp2197
I40
s(I33
I8
tp2198
I49
s(I14
I26
tp2199
I50
s(I36
I3
tp2200
I51
s(I39
I54
tp2201
I5
s(I61
I5
tp2202
I66
s(I26
I25
tp2203
I39
s(I48
I6
tp2204
I52
s(I12
I20
tp2205
I58
s(I51
I19
tp2206
I42
s(I15
I57
tp2207
I32
s(I19
I58
tp2208
I29
s(I2
I30
tp2209
I58
s(I24
I47
tp2210
I19
s(I27
I10
tp2211
I53
s(I49
I25
tp2212
I34
s(I30
I5
tp2213
I55
s(I52
I50
tp2214
I12
s(I0
I40
tp2215
I50
s(I56
I53
tp2216
I19
s(I55
I7
tp2217
I58
s(I20
I27
tp2218
I43
s(I3
I37
tp2219
I50
s(I42
I8
tp2220
I44
s(I23
I62
tp2221
I29
s(I6
I18
tp2222
I66
s(I28
I43
tp2223
I19
s(I32
I46
tp2224
I12
s(I31
I46
tp2225
I13
s(I35
I43
tp2226
I12
s(I18
I17
tp2227
I55
s(I57
I26
tp2228
I41
s(I40
I62
tp2229
I12
s(I21
I4
tp2230
I65
s(I60
I33
tp2231
I37
s(I43
I27
tp2232
I26
s(I8
I7
tp2233
I75
s(I7
I49
tp2234
I34
s(I11
I50
tp2235
I29
s(I33
I1
tp2236
I56
s(I14
I29
tp2237
I249
s(I36
I10
tp2238
I44
s(I39
I47
tp2239
I4
s(I61
I30
tp2240
I41
s(I44
I58
tp2241
I12
s(I48
I61
tp2242
I19
s(I12
I19
tp2243
I59
s(I51
I24
tp2244
I37
s(I15
I6
tp2245
I69
s(I37
I21
tp2246
I32
s(I2
I25
tp2247
I63
s(I24
I54
tp2248
I20
s(I27
I3
tp2249
I60
s(I49
I18
tp2250
I41
s(I30
I12
tp2251
I48
s(I52
I57
tp2252
I19
s(I0
I47
tp2253
I43
s(I56
I60
tp2254
I26
s(I55
I28
tp2255
I37
s(I20
I34
tp2256
I56
s(I3
I42
tp2257
I45
s(I23
I55
tp2258
I22
s(I6
I21
tp2259
I63
s(I28
I34
tp2260
I28
s(I32
I37
tp2261
I21
s(I31
I23
tp2262
I36
s(I53
I38
tp2263
I25
s(I18
I8
tp2264
I64
s(I57
I35
tp2265
I32
s(I40
I37
tp2266
I13
s(I21
I13
tp2267
I56
s(I60
I56
tp2268
I26
s(I43
I16
tp2269
I37
s(I8
I14
tp2270
I68
s(I7
I46
tp2271
I37
s(I11
I43
tp2272
I135
s(I33
I26
tp2273
I31
s(I16
I62
tp2274
I36
s(I36
I49
tp2275
I5
s(I58
I2
tp2276
I66
s(I39
I36
tp2277
I15
s(I61
I23
tp2278
I48
s(I44
I49
tp2279
I5
s(I9
I17
tp2280
I64
s(I48
I52
tp2281
I10
s(I12
I10
tp2282
I68
s(I15
I15
tp2283
I60
s(I37
I30
tp2284
I23
s(I2
I16
tp2285
I72
s(I24
I61
tp2286
I27
s(I27
I24
tp2287
I39
s(I49
I11
tp2288
I48
s(I52
I0
tp2289
I62
s(I0
I38
tp2290
I52
s(I55
I21
tp2291
I44
s(I20
I41
tp2292
I326
s(I3
I19
tp2293
I68
s(I25
I34
tp2294
I229
s(I6
I12
tp2295
I72
s(I28
I57
tp2296
I19
s(I32
I60
tp2297
I18
s(I31
I28
tp2298
I31
s(I53
I47
tp2299
I16
s(I18
I3
tp2300
I69
s(I57
I36
tp2301
I31
s(I40
I44
tp2302
I6
s(I21
I22
tp2303
I47
s(I4
I50
tp2304
I36
s(I60
I55
tp2305
I25
s(I43
I9
tp2306
I44
s(I8
I53
tp2307
I35
s(I7
I39
tp2308
I44
s(I46
I6
tp2309
I50
s(I11
I32
tp2310
I148
s(I33
I19
tp2311
I38
s(I16
I53
tp2312
I27
s(I36
I56
tp2313
I10
s(I58
I13
tp2314
I55
s(I41
I51
tp2315
I2
s(I61
I16
tp2316
I55
s(I44
I40
tp2317
I14
s(I9
I26
tp2318
I55
s(I48
I43
tp2319
I15
s(I12
I1
tp2320
I77
s(I15
I20
tp2321
I55
s(I37
I7
tp2322
I46
s(I24
I4
tp2323
I62
s(I62
I17
tp2324
I55
s(I27
I17
tp2325
I46
s(I49
I12
tp2326
I47
s(I13
I30
tp2327
I350
s(I52
I15
tp2328
I47
s(I0
I61
tp2329
I51
s(I55
I18
tp2330
I47
s(I20
I48
tp2331
I22
s(I3
I24
tp2332
I63
s(I25
I43
tp2333
I121
s(I6
I7
tp2334
I77
s(I28
I48
tp2335
I14
s(I32
I51
tp2336
I9
s(I31
I5
tp2337
I54
s(I53
I40
tp2338
I23
s(I57
I45
tp2339
I22
s(I40
I19
tp2340
I31
s(I21
I31
tp2341
I442
s(I4
I57
tp2342
I43
s(I43
I14
tp2343
I39
s(I8
I60
tp2344
I42
s(I7
I28
tp2345
I55
s(I46
I9
tp2346
I47
s(I29
I47
tp2347
I14
s(I33
I20
tp2348
I37
s(I16
I44
tp2349
I30
s(I36
I39
tp2350
I15
s(I58
I20
tp2351
I48
s(I41
I52
tp2352
I3
s(I61
I41
tp2353
I30
s(I44
I39
tp2354
I15
s(I9
I3
tp2355
I78
s(I48
I34
tp2356
I24
s(I12
I56
tp2357
I34
s(I34
I13
tp2358
I43
s(I15
I29
tp2359
I248
s(I37
I0
tp2360
I53
s(I24
I11
tp2361
I55
s(I62
I24
tp2362
I48
s(I27
I22
tp2363
I41
s(I49
I5
tp2364
I54
s(I13
I23
tp2365
I54
s(I52
I22
tp2366
I40
s(I0
I52
tp2367
I42
s(I20
I63
tp2368
I33
s(I3
I1
tp2369
I86
s(I25
I44
tp2370
I21
s(I28
I15
tp2371
I47
s(I50
I28
tp2372
I32
s(I31
I2
tp2373
I57
s(I53
I49
tp2374
I14
s(I1
I43
tp2375
I46
s(I57
I54
tp2376
I21
s(I40
I26
tp2377
I24
s(I21
I24
tp2378
I45
s(I4
I32
tp2379
I54
s(I43
I7
tp2380
I46
s(I8
I35
tp2381
I47
s(I7
I21
tp2382
I62
s(I46
I16
tp2383
I40
s(I29
I40
tp2384
I21
s(I33
I45
tp2385
I12
s(I16
I35
tp2386
I51
s(I36
I46
tp2387
I8
s(I58
I31
tp2388
I37
s(I41
I61
tp2389
I12
s(I22
I9
tp2390
I59
s(I61
I34
tp2391
I37
s(I44
I30
tp2392
I24
s(I9
I4
tp2393
I77
s(I12
I55
tp2394
I33
s(I34
I4
tp2395
I52
s(I15
I26
tp2396
I49
s(I37
I9
tp2397
I44
s(I24
I18
tp2398
I48
s(I62
I3
tp2399
I69
s(I45
I57
tp2400
I12
s(I49
I62
tp2401
I21
s(I13
I16
tp2402
I61
s(I52
I29
tp2403
I33
s(I0
I11
tp2404
I79
s(I38
I24
tp2405
I28
s(I3
I6
tp2406
I81
s(I25
I53
tp2407
I18
s(I28
I6
tp2408
I56
s(I50
I23
tp2409
I37
s(I31
I11
tp2410
I48
s(I53
I58
tp2411
I21
s(I1
I44
tp2412
I45
s(I57
I63
tp2413
I30
s(I40
I1
tp2414
I49
s(I21
I33
tp2415
I256
s(I4
I47
tp2416
I39
s(I8
I42
tp2417
I40
s(I7
I18
tp2418
I65
s(I46
I27
tp2419
I29
s(I29
I33
tp2420
I28
s(I33
I38
tp2421
I19
s(I16
I26
tp2422
I48
s(I54
I43
tp2423
I21
s(I58
I38
tp2424
I30
s(I41
I38
tp2425
I13
s(I22
I0
tp2426
I68
s(I61
I59
tp2427
I30
s(I44
I21
tp2428
I33
s(I9
I13
tp2429
I68
s(I12
I46
tp2430
I32
s(I34
I31
tp2431
I25
s(I17
I61
tp2432
I34
s(I37
I50
tp2433
I3
s(I59
I13
tp2434
I56
s(I24
I25
tp2435
I41
s(I62
I10
tp2436
I62
s(I45
I50
tp2437
I5
s(I10
I20
tp2438
I60
s(I49
I55
tp2439
I14
s(I13
I9
tp2440
I68
s(I0
I2
tp2441
I88
s(I38
I19
tp2442
I33
s(I3
I15
tp2443
I72
s(I25
I62
tp2444
I27
s(I28
I29
tp2445
I33
s(I50
I14
tp2446
I46
s(I53
I3
tp2447
I60
s(I1
I37
tp2448
I52
s(I40
I8
tp2449
I42
s(I21
I42
tp2450
I225
s(I4
I22
tp2451
I64
s(I26
I39
tp2452
I124
s(I7
I11
tp2453
I72
s(I46
I34
tp2454
I22
s(I29
I58
tp2455
I19
s(I33
I63
tp2456
I20
s(I16
I17
tp2457
I57
s(I54
I34
tp2458
I30
s(I58
I33
tp2459
I35
s(I41
I47
tp2460
I4
s(I22
I27
tp2461
I41
s(I5
I49
tp2462
I36
s(I61
I52
tp2463
I23
s(I44
I12
tp2464
I42
s(I9
I54
tp2465
I35
s(I47
I1
tp2466
I56
s(I12
I37
tp2467
I45
s(I34
I22
tp2468
I34
s(I17
I54
tp2469
I27
s(I37
I59
tp2470
I12
s(I59
I2
tp2471
I67
s(I42
I54
tp2472
I6
s(I62
I13
tp2473
I59
s(I45
I43
tp2474
I12
s(I10
I31
tp2475
I49
s(I49
I40
tp2476
I19
s(I13
I2
tp2477
I75
s(I0
I25
tp2478
I65
s(I38
I10
tp2479
I42
s(I25
I7
tp2480
I58
s(I63
I22
tp2481
I51
s(I28
I20
tp2482
I42
s(I50
I9
tp2483
I51
s(I14
I35
tp2484
I49
s(I53
I12
tp2485
I51
s(I1
I62
tp2486
I51
s(I40
I15
tp2487
I35
s(I21
I51
tp2488
I20
s(I4
I29
tp2489
I57
s(I26
I46
tp2490
I18
s(I7
I0
tp2491
I83
s(I46
I37
tp2492
I19
s(I29
I51
tp2493
I12
s(I33
I48
tp2494
I9
s(I16
I8
tp2495
I66
s(I54
I37
tp2496
I27
s(I19
I5
tp2497
I66
s(I58
I40
tp2498
I28
s(I41
I16
tp2499
I35
s(I22
I18
tp2500
I50
s(I5
I58
tp2501
I43
s(I44
I11
tp2502
I43
s(I9
I63
tp2503
I44
s(I47
I14
tp2504
I43
s(I30
I50
tp2505
I10
s(I34
I17
tp2506
I39
s(I17
I47
tp2507
I26
s(I37
I36
tp2508
I17
s(I59
I27
tp2509
I42
s(I42
I49
tp2510
I3
s(I62
I52
tp2511
I24
s(I45
I36
tp2512
I19
s(I10
I6
tp2513
I74
s(I49
I33
tp2514
I26
s(I13
I59
tp2515
I36
s(I35
I18
tp2516
I37
s(I0
I16
tp2517
I74
s(I38
I13
tp2518
I39
s(I25
I8
tp2519
I57
s(I63
I31
tp2520
I42
s(I28
I19
tp2521
I43
s(I50
I0
tp2522
I60
s(I14
I42
tp2523
I232
s(I53
I21
tp2524
I42
s(I1
I55
tp2525
I44
s(I21
I60
tp2526
I29
s(I4
I4
tp2527
I82
s(I26
I41
tp2528
I122
s(I46
I44
tp2529
I12
s(I29
I12
tp2530
I49
s(I51
I35
tp2531
I26
s(I16
I15
tp2532
I59
s(I54
I60
tp2533
I24
s(I19
I10
tp2534
I61
s(I2
I46
tp2535
I42
s(I58
I51
tp2536
I19
s(I41
I25
tp2537
I26
s(I22
I21
tp2538
I47
s(I5
I35
tp2539
I50
s(I44
I2
tp2540
I52
s(I9
I32
tp2541
I49
s(I47
I23
tp2542
I34
s(I30
I53
tp2543
I13
s(I34
I40
tp2544
I16
s(I17
I32
tp2545
I253
s(I56
I5
tp2546
I61
s(I37
I45
tp2547
I8
s(I59
I16
tp2548
I53
s(I42
I56
tp2549
I8
s(I23
I14
tp2550
I53
s(I62
I63
tp2551
I35
s(I45
I29
tp2552
I26
s(I10
I1
tp2553
I79
s(I13
I52
tp2554
I29
s(I35
I27
tp2555
I28
s(I0
I23
tp2556
I67
s(I38
I4
tp2557
I48
s(I25
I17
tp2558
I48
s(I63
I4
tp2559
I69
s(I50
I59
tp2560
I19
s(I14
I45
tp2561
I31
s(I53
I30
tp2562
I33
s(I1
I8
tp2563
I81
s(I39
I31
tp2564
I20
s(I4
I3
tp2565
I83
s(I26
I48
tp2566
I16
s(I46
I55
tp2567
I11
s(I29
I5
tp2568
I56
s(I51
I40
tp2569
I21
s(I16
I6
tp2570
I68
s(I54
I55
tp2571
I19
s(I19
I19
tp2572
I52
s(I2
I41
tp2573
I47
s(I58
I58
tp2574
I26
s(I41
I2
tp2575
I49
s(I22
I44
tp2576
I24
s(I5
I44
tp2577
I41
s(I9
I41
tp2578
I40
s(I47
I28
tp2579
I29
s(I30
I60
tp2580
I20
s(I34
I35
tp2581
I21
s(I17
I25
tp2582
I48
s(I56
I12
tp2583
I54
s(I55
I44
tp2584
I21
s(I59
I41
tp2585
I28
s(I42
I35
tp2586
I17
s(I23
I7
tp2587
I60
s(I62
I38
tp2588
I34
s(I45
I22
tp2589
I33
s(I10
I8
tp2590
I72
s(I13
I45
tp2591
I32
s(I35
I0
tp2592
I55
s(I18
I56
tp2593
I28
s(I38
I63
tp2594
I15
s(I60
I8
tp2595
I62
s(I25
I26
tp2596
I39
s(I63
I13
tp2597
I60
s(I11
I27
tp2598
I52
s(I50
I50
tp2599
I10
s(I14
I52
tp2600
I28
s(I1
I1
tp2601
I88
s(I39
I20
tp2602
I31
s(I4
I10
tp2603
I76
s(I26
I59
tp2604
I23
s(I46
I62
tp2605
I18
s(I29
I30
tp2606
I31
s(I51
I49
tp2607
I12
s(I54
I14
tp2608
I50
s(I19
I24
tp2609
I47
s(I2
I32
tp2610
I56
s(I41
I11
tp2611
I40
s(I22
I39
tp2612
I453
s(I5
I21
tp2613
I64
s(I27
I40
tp2614
I23
s(I47
I37
tp2615
I20
s(I30
I39
tp2616
I21
s(I34
I58
tp2617
I14
s(I17
I18
tp2618
I55
s(I56
I19
tp2619
I47
s(I55
I37
tp2620
I28
s(I59
I46
tp2621
I23
s(I42
I42
tp2622
I10
s(I23
I28
tp2623
I140
s(I6
I60
tp2624
I44
s(I62
I41
tp2625
I31
s(I45
I15
tp2626
I40
s(I10
I51
tp2627
I31
s(I32
I12
tp2628
I46
s(I13
I38
tp2629
I146
s(I35
I9
tp2630
I46
s(I18
I51
tp2631
I23
s(I38
I54
tp2632
I6
s(I60
I7
tp2633
I63
s(I43
I57
tp2634
I10
s(I63
I10
tp2635
I63
s(I11
I16
tp2636
I63
s(I50
I45
tp2637
I15
s(I14
I63
tp2638
I39
s(I1
I26
tp2639
I63
s(I39
I13
tp2640
I38
s(I26
I2
tp2641
I62
s(I48
I27
tp2642
I31
s(I29
I23
tp2643
I38
s(I51
I54
tp2644
I15
s(I15
I36
tp2645
I49
s(I54
I1
tp2646
I63
s(I19
I33
tp2647
I155
s(I2
I59
tp2648
I47
s(I41
I12
tp2649
I39
s(I22
I62
tp2650
I30
s(I5
I30
tp2651
I55
s(I27
I33
tp2652
I30
s(I47
I34
tp2653
I23
s(I30
I46
tp2654
I14
s(I34
I53
tp2655
I9
s(I17
I11
tp2656
I62
s(I56
I26
tp2657
I40
s(I55
I34
tp2658
I31
s(I20
I0
tp2659
I70
s(I59
I39
tp2660
I30
s(I42
I21
tp2661
I31
s(I23
I21
tp2662
I46
s(I6
I55
tp2663
I39
s(I45
I8
tp2664
I47
s(I10
I58
tp2665
I38
s(I32
I3
tp2666
I55
s(I31
I53
tp2667
I12
s(I35
I14
tp2668
I41
s(I18
I42
tp2669
I228
s(I38
I41
tp2670
I11
s(I60
I30
tp2671
I40
s(I43
I62
tp2672
I15
s(I63
I51
tp2673
I24
s(I11
I9
tp2674
I70
s(I50
I36
tp2675
I24
s(I14
I6
tp2676
I70
s(I36
I23
tp2677
I31
s(I1
I19
tp2678
I70
s(I39
I10
tp2679
I41
s(I26
I13
tp2680
I51
s(I48
I18
tp2681
I40
s(I29
I16
tp2682
I45
s(I51
I63
tp2683
I24
s(I15
I45
tp2684
I30
s(I54
I24
tp2685
I40
s(I19
I38
tp2686
I152
s(I2
I50
tp2687
I38
s(I22
I49
tp2688
I19
s(I5
I7
tp2689
I78
s(I27
I38
tp2690
I25
s(I47
I43
tp2691
I14
s(I30
I17
tp2692
I43
s(I52
I38
tp2693
I24
s(I17
I12
tp2694
I61
s(I56
I33
tp2695
I33
s(I55
I59
tp2696
I24
s(I20
I15
tp2697
I55
s(I3
I49
tp2698
I38
s(I59
I60
tp2699
I29
s(I42
I28
tp2700
I24
s(I23
I18
tp2701
I49
s(I6
I46
tp2702
I38
s(I45
I1
tp2703
I54
s(I10
I37
tp2704
I43
s(I32
I26
tp2705
I32
s(I31
I50
tp2706
I9
s(I35
I55
tp2707
I10
s(I18
I37
tp2708
I51
s(I57
I6
tp2709
I61
s(I38
I32
tp2710
I20
s(I60
I21
tp2711
I49
s(I43
I55
tp2712
I8
s(I8
I19
tp2713
I63
s(I63
I56
tp2714
I29
s(I11
I14
tp2715
I65
s(I14
I9
tp2716
I67
s(I36
I30
tp2717
I24
s(I1
I20
tp2718
I69
s(I39
I3
tp2719
I48
s(I26
I20
tp2720
I44
s(I48
I9
tp2721
I49
s(I51
I4
tp2722
I57
s(I15
I42
tp2723
I231
s(I54
I19
tp2724
I45
s(I19
I47
tp2725
I24
s(I2
I13
tp2726
I75
s(I24
I34
tp2727
I329
s(I5
I0
tp2728
I85
s(I27
I63
tp2729
I26
s(I47
I48
tp2730
I9
s(I30
I24
tp2731
I36
s(I52
I45
tp2732
I17
s(I17
I5
tp2733
I68
s(I56
I40
tp2734
I26
s(I55
I48
tp2735
I17
s(I20
I22
tp2736
I48
s(I3
I54
tp2737
I41
s(I59
I53
tp2738
I22
s(I42
I7
tp2739
I45
s(I23
I43
tp2740
I123
s(I6
I33
tp2741
I51
s(I10
I44
tp2742
I36
s(I32
I17
tp2743
I41
s(I31
I59
tp2744
I18
s(I35
I60
tp2745
I15
s(I18
I28
tp2746
I145
s(I57
I15
tp2747
I52
s(I40
I49
tp2748
I1
s(I60
I44
tp2749
I26
s(I43
I44
tp2750
I9
s(I8
I26
tp2751
I56
s(I63
I33
tp2752
I40
s(I11
I7
tp2753
I72
s(I14
I16
tp2754
I60
s(I36
I5
tp2755
I49
s(I39
I56
tp2756
I7
s(I61
I11
tp2757
I60
s(I26
I31
tp2758
I132
s(I48
I0
tp2759
I58
s(I12
I30
tp2760
I250
s(I51
I13
tp2761
I48
s(I15
I51
tp2762
I26
s(I19
I52
tp2763
I23
s(I2
I4
tp2764
I84
s(I24
I41
tp2765
I322
s(I5
I9
tp2766
I76
s(I27
I52
tp2767
I15
s(I47
I57
tp2768
I14
s(I30
I3
tp2769
I57
s(I52
I52
tp2770
I14
s(I56
I47
tp2771
I19
s(I55
I9
tp2772
I56
s(I20
I29
tp2773
I243
s(I3
I63
tp2774
I50
s(I42
I14
tp2775
I38
s(I23
I32
tp2776
I431
s(I6
I24
tp2777
I60
s(I28
I45
tp2778
I17
s(I32
I40
tp2779
I18
s(I31
I32
tp2780
I27
s(I35
I37
tp2781
I18
s(I18
I23
tp2782
I49
s(I57
I16
tp2783
I51
s(I40
I56
tp2784
I6
s(I60
I43
tp2785
I27
s(I43
I37
tp2786
I16
s(I8
I1
tp2787
I81
s(I7
I59
tp2788
I42
s(I63
I46
tp2789
I27
s(I11
I60
tp2790
I39
s(I33
I15
tp2791
I42
s(I14
I27
tp2792
I49
s(I36
I12
tp2793
I42
s(I39
I49
tp2794
I2
s(I61
I4
tp2795
I67
s(I44
I60
tp2796
I14
s(I48
I7
tp2797
I51
s(I12
I21
tp2798
I57
s(I51
I18
tp2799
I43
s(I15
I56
tp2800
I31
s(I19
I61
tp2801
I32
s(I2
I31
tp2802
I57
s(I24
I48
tp2803
I18
s(I27
I13
tp2804
I50
s(I49
I24
tp2805
I35
s(I30
I10
tp2806
I50
s(I52
I51
tp2807
I13
s(I0
I41
tp2808
I49
s(I56
I54
tp2809
I20
s(I55
I6
tp2810
I59
s(I20
I36
tp2811
I54
s(I3
I36
tp2812
I51
s(I42
I9
tp2813
I43
s(I23
I57
tp2814
I24
s(I6
I19
tp2815
I65
s(I28
I36
tp2816
I26
s(I32
I47
tp2817
I11
s(I31
I41
tp2818
I18
s(I35
I42
tp2819
I13
s(I18
I14
tp2820
I58
s(I57
I25
tp2821
I42
s(I40
I63
tp2822
I13
s(I21
I3
tp2823
I66
s(I60
I34
tp2824
I36
s(I43
I26
tp2825
I27
s(I8
I8
tp2826
I74
s(I7
I48
tp2827
I35
s(I11
I53
tp2828
I32
s(I33
I0
tp2829
I57
s(I16
I56
tp2830
I30
s(I36
I11
tp2831
I43
s(I39
I46
tp2832
I5
s(I61
I29
tp2833
I42
s(I44
I59
tp2834
I13
s(I48
I62
tp2835
I20
s(I12
I12
tp2836
I66
s(I51
I27
tp2837
I34
s(I15
I1
tp2838
I74
s(I37
I20
tp2839
I33
s(I2
I22
tp2840
I66
s(I24
I55
tp2841
I21
s(I27
I2
tp2842
I61
s(I49
I17
tp2843
I42
s(I30
I13
tp2844
I47
s(I52
I58
tp2845
I20
s(I0
I32
tp2846
I58
s(I56
I61
tp2847
I27
s(I55
I31
tp2848
I34
s(I20
I35
tp2849
I55
s(I3
I45
tp2850
I42
s(I23
I54
tp2851
I21
s(I6
I10
tp2852
I74
s(I28
I35
tp2853
I27
s(I32
I38
tp2854
I20
s(I31
I22
tp2855
I37
s(I53
I37
tp2856
I26
s(I18
I9
tp2857
I63
s(I57
I34
tp2858
I33
s(I40
I38
tp2859
I12
s(I21
I12
tp2860
I57
s(I4
I52
tp2861
I38
s(I60
I57
tp2862
I27
s(I43
I19
tp2863
I34
s(I8
I15
tp2864
I67
s(I7
I41
tp2865
I42
s(I11
I42
tp2866
I138
s(I33
I25
tp2867
I32
s(I16
I63
tp2868
I37
s(I36
I50
tp2869
I4
s(I58
I3
tp2870
I65
s(I39
I39
tp2871
I12
s(I61
I22
tp2872
I49
s(I44
I50
tp2873
I4
s(I9
I16
tp2874
I65
s(I48
I53
tp2875
I11
s(I12
I11
tp2876
I67
s(I15
I14
tp2877
I61
s(I37
I29
tp2878
I24
s(I2
I17
tp2879
I71
s(I24
I62
tp2880
I28
s(I27
I27
tp2881
I36
s(I49
I10
tp2882
I49
s(I52
I1
tp2883
I61
s(I0
I39
tp2884
I51
s(I55
I20
tp2885
I45
s(I20
I42
tp2886
I226
s(I3
I18
tp2887
I69
s(I25
I33
tp2888
I230
s(I6
I13
tp2889
I71
s(I28
I58
tp2890
I20
s(I32
I61
tp2891
I19
s(I31
I31
tp2892
I28
s(I53
I46
tp2893
I17
s(I18
I0
tp2894
I72
s(I57
I43
tp2895
I24
s(I40
I45
tp2896
I5
s(I21
I21
tp2897
I48
s(I4
I51
tp2898
I37
s(I60
I48
tp2899
I22
s(I43
I8
tp2900
I45
s(I8
I54
tp2901
I36
s(I7
I38
tp2902
I45
s(I46
I7
tp2903
I49
s(I11
I35
tp2904
I46
s(I33
I18
tp2905
I39
s(I16
I54
tp2906
I28
s(I36
I57
tp2907
I11
s(I58
I10
tp2908
I58
s(I41
I50
tp2909
I1
s(I61
I47
tp2910
I24
s(I44
I41
tp2911
I13
s(I9
I25
tp2912
I56
s(I48
I44
tp2913
I14
s(I12
I2
tp2914
I76
s(I15
I23
tp2915
I52
s(I37
I6
tp2916
I47
s(I24
I5
tp2917
I61
s(I62
I22
tp2918
I50
s(I27
I16
tp2919
I47
s(I49
I3
tp2920
I56
s(I13
I29
tp2921
I250
s(I52
I8
tp2922
I54
s(I0
I62
tp2923
I52
s(I20
I49
tp2924
I21
s(I3
I27
tp2925
I60
s(I25
I42
tp2926
I221
s(I6
I4
tp2927
I80
s(I28
I49
tp2928
I13
s(I32
I52
tp2929
I10
s(I31
I4
tp2930
I55
s(I53
I55
tp2931
I18
s(I57
I44
tp2932
I23
s(I40
I20
tp2933
I30
s(I21
I30
tp2934
I342
s(I4
I58
tp2935
I44
s(I43
I1
tp2936
I52
s(I8
I61
tp2937
I43
s(I7
I31
tp2938
I52
s(I46
I14
tp2939
I42
s(I29
I46
tp2940
I15
s(I33
I43
tp2941
I14
s(I16
I45
tp2942
I29
s(I36
I32
tp2943
I22
s(I58
I21
tp2944
I47
s(I41
I59
tp2945
I10
s(I61
I40
tp2946
I31
s(I44
I32
tp2947
I22
s(I9
I2
tp2948
I79
s(I48
I35
tp2949
I23
s(I12
I57
tp2950
I35
s(I34
I10
tp2951
I46
s(I15
I28
tp2952
I148
s(I37
I15
tp2953
I38
s(I24
I12
tp2954
I54
s(I62
I25
tp2955
I47
s(I45
I63
tp2956
I18
s(I49
I4
tp2957
I55
s(I13
I22
tp2958
I55
s(I52
I23
tp2959
I39
s(I0
I53
tp2960
I43
s(I20
I56
tp2961
I26
s(I3
I0
tp2962
I87
s(I25
I51
tp2963
I16
s(I28
I8
tp2964
I54
s(I50
I29
tp2965
I31
s(I31
I13
tp2966
I46
s(I53
I48
tp2967
I15
s(I1
I42
tp2968
I47
s(I57
I53
tp2969
I20
s(I40
I27
tp2970
I23
s(I21
I39
tp2971
I353
s(I4
I33
tp2972
I53
s(I43
I6
tp2973
I47
s(I8
I36
tp2974
I46
s(I7
I20
tp2975
I63
s(I46
I17
tp2976
I39
s(I29
I39
tp2977
I22
s(I33
I44
tp2978
I13
s(I16
I36
tp2979
I50
s(I36
I47
tp2980
I7
s(I58
I28
tp2981
I40
s(I41
I60
tp2982
I11
s(I22
I14
tp2983
I54
s(I61
I33
tp2984
I38
s(I44
I31
tp2985
I23
s(I9
I11
tp2986
I70
s(I12
I48
tp2987
I30
s(I34
I5
tp2988
I51
s(I17
I59
tp2989
I32
s(I37
I8
tp2990
I45
s(I24
I19
tp2991
I47
s(I62
I0
tp2992
I72
s(I45
I56
tp2993
I11
s(I49
I61
tp2994
I20
s(I13
I15
tp2995
I62
s(I52
I30
tp2996
I32
s(I0
I12
tp2997
I78
s(I38
I25
tp2998
I27
s(I3
I9
tp2999
I78
s(I25
I52
tp3000
I17
s(I28
I7
tp3001
I55
s(I50
I20
tp3002
I40
s(I31
I10
tp3003
I49
s(I53
I57
tp3004
I20
s(I1
I35
tp3005
I54
s(I57
I62
tp3006
I29
s(I40
I2
tp3007
I48
s(I21
I32
tp3008
I356
s(I4
I40
tp3009
I46
s(I8
I43
tp3010
I39
s(I7
I13
tp3011
I70
s(I46
I24
tp3012
I32
s(I29
I32
tp3013
I29
s(I33
I37
tp3014
I20
s(I16
I27
tp3015
I47
s(I54
I40
tp3016
I24
s(I58
I39
tp3017
I29
s(I41
I37
tp3018
I14
s(I22
I1
tp3019
I67
s(I5
I55
tp3020
I40
s(I61
I58
tp3021
I29
s(I44
I22
tp3022
I32
s(I9
I12
tp3023
I69
s(I12
I47
tp3024
I31
s(I34
I28
tp3025
I28
s(I17
I60
tp3026
I33
s(I37
I49
tp3027
I4
s(I59
I12
tp3028
I57
s(I24
I26
tp3029
I40
s(I62
I11
tp3030
I61
s(I45
I49
tp3031
I6
s(I10
I21
tp3032
I59
s(I49
I54
tp3033
I13
s(I13
I8
tp3034
I69
s(I0
I3
tp3035
I87
s(I38
I16
tp3036
I36
s(I3
I14
tp3037
I73
s(I25
I61
tp3038
I26
s(I28
I30
tp3039
I32
s(I50
I15
tp3040
I45
s(I53
I2
tp3041
I61
s(I1
I36
tp3042
I53
s(I40
I9
tp3043
I41
s(I21
I41
tp3044
I325
s(I4
I23
tp3045
I63
s(I26
I36
tp3046
I127
s(I7
I10
tp3047
I73
s(I46
I35
tp3048
I21
s(I29
I57
tp3049
I18
s(I33
I62
tp3050
I19
s(I16
I18
tp3051
I56
s(I54
I35
tp3052
I29
s(I58
I46
tp3053
I22
s(I41
I46
tp3054
I5
s(I22
I24
tp3055
I44
s(I5
I48
tp3056
I37
s(I61
I51
tp3057
I22
s(I44
I13
tp3058
I41
s(I9
I53
tp3059
I34
s(I47
I0
tp3060
I57
s(I12
I38
tp3061
I145
s(I34
I23
tp3062
I33
s(I17
I53
tp3063
I26
s(I37
I58
tp3064
I11
s(I59
I5
tp3065
I64
s(I42
I55
tp3066
I7
s(I62
I50
tp3067
I22
s(I45
I42
tp3068
I13
s(I10
I28
tp3069
I52
s(I49
I47
tp3070
I12
s(I13
I1
tp3071
I76
s(I0
I26
tp3072
I64
s(I38
I11
tp3073
I41
s(I25
I6
tp3074
I59
s(I63
I17
tp3075
I56
s(I28
I21
tp3076
I41
s(I50
I6
tp3077
I54
s(I14
I32
tp3078
I250
s(I53
I11
tp3079
I52
s(I1
I61
tp3080
I50
s(I21
I50
tp3081
I19
s(I4
I30
tp3082
I56
s(I26
I47
tp3083
I17
s(I7
I3
tp3084
I80
s(I46
I42
tp3085
I14
s(I29
I50
tp3086
I11
s(I33
I55
tp3087
I12
s(I16
I9
tp3088
I65
s(I54
I58
tp3089
I22
s(I19
I4
tp3090
I67
s(I58
I41
tp3091
I27
s(I41
I23
tp3092
I28
s(I22
I19
tp3093
I49
s(I5
I57
tp3094
I42
s(I44
I4
tp3095
I50
s(I9
I62
tp3096
I43
s(I47
I9
tp3097
I48
s(I30
I51
tp3098
I11
s(I34
I46
tp3099
I10
s(I17
I46
tp3100
I27
s(I37
I35
tp3101
I18
s(I59
I26
tp3102
I43
s(I42
I62
tp3103
I14
s(I62
I53
tp3104
I25
s(I45
I35
tp3105
I20
s(I10
I7
tp3106
I73
s(I49
I32
tp3107
I27
s(I13
I58
tp3108
I35
s(I35
I21
tp3109
I34
s(I0
I17
tp3110
I73
s(I38
I2
tp3111
I50
s(I25
I15
tp3112
I50
s(I63
I30
tp3113
I43
s(I50
I1
tp3114
I59
s(I14
I43
tp3115
I132
s(I53
I20
tp3116
I43
s(I1
I54
tp3117
I43
s(I21
I59
tp3118
I28
s(I4
I5
tp3119
I81
s(I26
I54
tp3120
I18
s(I46
I45
tp3121
I11
s(I29
I11
tp3122
I50
s(I51
I34
tp3123
I27
s(I16
I0
tp3124
I74
s(I54
I61
tp3125
I25
s(I19
I13
tp3126
I58
s(I2
I47
tp3127
I41
s(I58
I48
tp3128
I20
s(I41
I24
tp3129
I27
s(I22
I42
tp3130
I224
s(I5
I34
tp3131
I51
s(I44
I3
tp3132
I51
s(I9
I39
tp3133
I42
s(I47
I22
tp3134
I35
s(I30
I58
tp3135
I18
s(I34
I41
tp3136
I15
s(I17
I39
tp3137
I250
s(I56
I6
tp3138
I60
s(I37
I44
tp3139
I9
s(I59
I19
tp3140
I50
s(I42
I57
tp3141
I9
s(I23
I9
tp3142
I58
s(I62
I60
tp3143
I32
s(I45
I28
tp3144
I27
s(I10
I14
tp3145
I66
s(I13
I51
tp3146
I28
s(I35
I26
tp3147
I29
s(I18
I62
tp3148
I34
s(I38
I5
tp3149
I47
s(I25
I16
tp3150
I49
s(I63
I7
tp3151
I66
s(I50
I56
tp3152
I16
s(I14
I50
tp3153
I26
s(I53
I29
tp3154
I34
s(I1
I15
tp3155
I74
s(I39
I30
tp3156
I21
s(I4
I12
tp3157
I74
s(I26
I49
tp3158
I15
s(I46
I52
tp3159
I8
s(I29
I4
tp3160
I57
s(I51
I43
tp3161
I18
s(I16
I7
tp3162
I67
s(I54
I52
tp3163
I16
s(I19
I18
tp3164
I53
s(I2
I38
tp3165
I50
s(I58
I59
tp3166
I27
s(I41
I1
tp3167
I50
s(I22
I45
tp3168
I23
s(I5
I43
tp3169
I42
s(I9
I40
tp3170
I41
s(I47
I31
tp3171
I26
s(I30
I61
tp3172
I21
s(I34
I32
tp3173
I24
s(I17
I24
tp3174
I49
s(I56
I13
tp3175
I53
s(I55
I47
tp3176
I18
s(I59
I40
tp3177
I29
s(I42
I32
tp3178
I20
s(I23
I6
tp3179
I61
s(I6
I58
tp3180
I42
s(I62
I39
tp3181
I33
s(I45
I21
tp3182
I34
s(I10
I9
tp3183
I71
s(I13
I44
tp3184
I33
s(I35
I3
tp3185
I52
s(I18
I57
tp3186
I29
s(I38
I60
tp3187
I12
s(I60
I9
tp3188
I61
s(I25
I25
tp3189
I40
s(I63
I12
tp3190
I61
s(I11
I26
tp3191
I53
s(I50
I51
tp3192
I11
s(I14
I53
tp3193
I29
s(I1
I0
tp3194
I89
s(I39
I23
tp3195
I28
s(I4
I11
tp3196
I75
s(I26
I56
tp3197
I20
s(I46
I63
tp3198
I19
s(I29
I29
tp3199
I32
s(I51
I48
tp3200
I13
s(I54
I15
tp3201
I49
s(I19
I27
tp3202
I44
s(I2
I33
tp3203
I55
s(I41
I10
tp3204
I41
s(I22
I36
tp3205
I254
s(I5
I20
tp3206
I65
s(I27
I43
tp3207
I20
s(I47
I36
tp3208
I21
s(I30
I36
tp3209
I24
s(I34
I59
tp3210
I15
s(I17
I17
tp3211
I56
s(I56
I20
tp3212
I46
s(I55
I36
tp3213
I29
s(I59
I33
tp3214
I36
s(I42
I43
tp3215
I9
s(I23
I31
tp3216
I432
s(I6
I61
tp3217
I45
s(I62
I46
tp3218
I26
s(I45
I14
tp3219
I41
s(I10
I48
tp3220
I32
s(I32
I13
tp3221
I45
s(I13
I37
tp3222
I46
s(I35
I8
tp3223
I47
s(I18
I48
tp3224
I24
s(I38
I55
tp3225
I7
s(I60
I0
tp3226
I70
s(I43
I56
tp3227
I9
s(I63
I53
tp3228
I26
s(I11
I19
tp3229
I60
s(I50
I42
tp3230
I18
s(I14
I60
tp3231
I36
s(I1
I25
tp3232
I64
s(I39
I12
tp3233
I39
s(I26
I3
tp3234
I61
s(I48
I28
tp3235
I30
s(I29
I22
tp3236
I39
s(I51
I57
tp3237
I18
s(I15
I39
tp3238
I248
s(I54
I6
tp3239
I58
s(I19
I32
tp3240
I255
s(I2
I56
tp3241
I44
s(I22
I63
tp3242
I31
s(I5
I29
tp3243
I56
s(I27
I32
tp3244
I31
s(I47
I45
tp3245
I12
s(I30
I47
tp3246
I13
s(I34
I50
tp3247
I6
s(I17
I10
tp3248
I63
s(I56
I27
tp3249
I39
s(I55
I61
tp3250
I26
s(I20
I1
tp3251
I69
s(I59
I38
tp3252
I31
s(I42
I18
tp3253
I34
s(I23
I20
tp3254
I47
s(I6
I52
tp3255
I36
s(I45
I7
tp3256
I48
s(I10
I59
tp3257
I39
s(I32
I4
tp3258
I54
s(I31
I52
tp3259
I11
s(I35
I49
tp3260
I6
s(I18
I43
tp3261
I128
s(I38
I46
tp3262
I6
s(I60
I31
tp3263
I39
s(I43
I49
tp3264
I4
s(I63
I50
tp3265
I23
s(I11
I8
tp3266
I71
s(I50
I37
tp3267
I23
s(I14
I7
tp3268
I69
s(I36
I16
tp3269
I38
s(I1
I18
tp3270
I71
s(I39
I5
tp3271
I46
s(I26
I10
tp3272
I54
s(I48
I19
tp3273
I39
s(I51
I62
tp3274
I23
s(I15
I44
tp3275
I31
s(I54
I25
tp3276
I39
s(I19
I41
tp3277
I327
s(I2
I51
tp3278
I39
s(I22
I54
tp3279
I22
s(I5
I6
tp3280
I79
s(I27
I57
tp3281
I20
s(I47
I42
tp3282
I15
s(I30
I22
tp3283
I38
s(I52
I39
tp3284
I23
s(I17
I3
tp3285
I70
s(I56
I34
tp3286
I32
s(I55
I58
tp3287
I23
s(I20
I8
tp3288
I62
s(I3
I48
tp3289
I39
s(I59
I63
tp3290
I32
s(I42
I29
tp3291
I23
s(I23
I45
tp3292
I22
s(I6
I47
tp3293
I37
s(I45
I0
tp3294
I55
s(I10
I34
tp3295
I46
s(I32
I27
tp3296
I31
s(I31
I61
tp3297
I20
s(I35
I54
tp3298
I9
s(I18
I34
tp3299
I54
s(I57
I5
tp3300
I62
s(I38
I33
tp3301
I19
s(I60
I22
tp3302
I48
s(I43
I54
tp3303
I7
s(I8
I20
tp3304
I62
s(I63
I59
tp3305
I32
s(I11
I1
tp3306
I78
s(I14
I14
tp3307
I62
s(I36
I31
tp3308
I23
s(I39
I2
tp3309
I49
s(I26
I21
tp3310
I43
s(I48
I10
tp3311
I48
s(I51
I7
tp3312
I54
s(I15
I53
tp3313
I28
s(I54
I16
tp3314
I48
s(I19
I46
tp3315
I25
s(I2
I10
tp3316
I78
s(I24
I35
tp3317
I328
s(I5
I15
tp3318
I70
s(I27
I62
tp3319
I25
s(I47
I51
tp3320
I8
s(I30
I25
tp3321
I35
s(I52
I46
tp3322
I16
s(I17
I4
tp3323
I69
s(I56
I41
tp3324
I25
s(I55
I51
tp3325
I16
s(I20
I23
tp3326
I47
s(I3
I57
tp3327
I44
s(I59
I52
tp3328
I21
s(I42
I4
tp3329
I48
s(I23
I42
tp3330
I223
s(I6
I38
tp3331
I46
s(I10
I45
tp3332
I35
s(I32
I18
tp3333
I40
s(I31
I58
tp3334
I17
s(I35
I63
tp3335
I18
s(I18
I29
tp3336
I245
s(I57
I14
tp3337
I53
s(I40
I50
tp3338
I0
s(I60
I45
tp3339
I25
s(I43
I47
tp3340
I6
s(I8
I27
tp3341
I55
s(I7
I61
tp3342
I44
s(I63
I32
tp3343
I41
s(I11
I6
tp3344
I73
s(I14
I17
tp3345
I59
s(I36
I6
tp3346
I48
s(I39
I59
tp3347
I10
s(I61
I10
tp3348
I61
s(I26
I28
tp3349
I135
s(I48
I1
tp3350
I57
s(I12
I31
tp3351
I249
s(I51
I12
tp3352
I49
s(I15
I50
tp3353
I25
s(I19
I55
tp3354
I26
s(I2
I5
tp3355
I83
s(I24
I42
tp3356
I222
s(I5
I8
tp3357
I77
s(I27
I55
tp3358
I18
s(I47
I56
tp3359
I13
s(I30
I0
tp3360
I60
s(I52
I53
tp3361
I15
s(I56
I48
tp3362
I18
s(I55
I8
tp3363
I57
s(I20
I30
tp3364
I343
s(I3
I62
tp3365
I49
s(I42
I15
tp3366
I37
s(I23
I35
tp3367
I355
s(I6
I25
tp3368
I59
s(I28
I46
tp3369
I16
s(I32
I41
tp3370
I17
s(I31
I35
tp3371
I24
s(I35
I36
tp3372
I19
s(I18
I20
tp3373
I52
s(I57
I23
tp3374
I44
s(I40
I57
tp3375
I7
s(I60
I36
tp3376
I34
s(I43
I36
tp3377
I17
s(I8
I2
tp3378
I80
s(I7
I58
tp3379
I41
s(I63
I41
tp3380
I32
s(I11
I63
tp3381
I42
s(I33
I14
tp3382
I43
s(I14
I24
tp3383
I52
s(I36
I13
tp3384
I41
s(I39
I48
tp3385
I3
s(I61
I3
tp3386
I68
s(I44
I61
tp3387
I15
s(I48
I56
tp3388
I14
s(I12
I22
tp3389
I56
s(I51
I21
tp3390
I40
s(I15
I59
tp3391
I34
s(I19
I60
tp3392
I31
s(I2
I28
tp3393
I60
s(I24
I49
tp3394
I17
s(I27
I12
tp3395
I51
s(I49
I31
tp3396
I28
s(I30
I11
tp3397
I49
s(I52
I60
tp3398
I22
s(I0
I42
tp3399
I48
s(I56
I55
tp3400
I21
s(I55
I1
tp3401
I64
s(I20
I37
tp3402
I53
s(I3
I39
tp3403
I48
s(I23
I56
tp3404
I23
s(I6
I16
tp3405
I68
s(I28
I37
tp3406
I25
s(I32
I32
tp3407
I26
s(I31
I40
tp3408
I19
s(I35
I45
tp3409
I10
s(I18
I15
tp3410
I57
s(I57
I24
tp3411
I43
s(I40
I32
tp3412
I18
s(I21
I2
tp3413
I67
s(I60
I35
tp3414
I35
s(I43
I29
tp3415
I24
s(I8
I9
tp3416
I73
s(I7
I51
tp3417
I34
s(I11
I52
tp3418
I31
s(I33
I7
tp3419
I50
s(I16
I57
tp3420
I31
s(I36
I52
tp3421
I6
s(I39
I41
tp3422
I10
s(I61
I28
tp3423
I43
s(I44
I52
tp3424
I6
s(I48
I63
tp3425
I21
s(I12
I13
tp3426
I65
s(I51
I26
tp3427
I35
s(I15
I0
tp3428
I75
s(I37
I19
tp3429
I34
s(I2
I23
tp3430
I65
s(I24
I56
tp3431
I22
s(I27
I5
tp3432
I58
s(I49
I16
tp3433
I43
s(I52
I59
tp3434
I21
s(I0
I33
tp3435
I57
s(I56
I62
tp3436
I28
s(I55
I30
tp3437
I35
s(I20
I44
tp3438
I26
s(I3
I44
tp3439
I43
s(I23
I49
tp3440
I18
s(I6
I11
tp3441
I73
s(I28
I60
tp3442
I22
s(I32
I39
tp3443
I19
s(I31
I17
tp3444
I42
s(I53
I36
tp3445
I27
s(I18
I6
tp3446
I66
s(I57
I33
tp3447
I34
s(I40
I39
tp3448
I11
s(I21
I11
tp3449
I58
s(I4
I53
tp3450
I39
s(I60
I58
tp3451
I28
s(I43
I18
tp3452
I35
s(I8
I48
tp3453
I34
s(I7
I40
tp3454
I43
s(I11
I45
tp3455
I34
s(I33
I24
tp3456
I33
s(I16
I48
tp3457
I26
s(I36
I51
tp3458
I5
s(I58
I0
tp3459
I68
s(I39
I38
tp3460
I13
s(I61
I21
tp3461
I50
s(I44
I51
tp3462
I5
s(I9
I23
tp3463
I58
s(I48
I54
tp3464
I12
s(I12
I4
tp3465
I74
s(I15
I9
tp3466
I66
s(I37
I28
tp3467
I25
s(I24
I63
tp3468
I29
s(I27
I26
tp3469
I37
s(I49
I9
tp3470
I50
s(I52
I2
tp3471
I60
s(I0
I56
tp3472
I46
s(I55
I23
tp3473
I42
s(I20
I43
tp3474
I126
s(I3
I21
tp3475
I66
s(I25
I32
tp3476
I231
s(I6
I2
tp3477
I82
s(I28
I59
tp3478
I21
s(I32
I62
tp3479
I20
s(I31
I30
tp3480
I29
s(I53
I45
tp3481
I18
s(I18
I1
tp3482
I71
s(I57
I42
tp3483
I25
s(I40
I46
tp3484
I4
s(I21
I20
tp3485
I49
s(I4
I60
tp3486
I46
s(I60
I49
tp3487
I21
s(I43
I11
tp3488
I42
s(I8
I55
tp3489
I37
s(I7
I33
tp3490
I50
s(I46
I4
tp3491
I52
s(I11
I34
tp3492
I47
s(I33
I17
tp3493
I40
s(I16
I55
tp3494
I29
s(I36
I58
tp3495
I12
s(I58
I11
tp3496
I57
s(I41
I49
tp3497
I2
s(I61
I46
tp3498
I25
s(I44
I42
tp3499
I12
s(I9
I24
tp3500
I57
s(I48
I45
tp3501
I13
s(I12
I3
tp3502
I75
s(I15
I22
tp3503
I53
s(I37
I5
tp3504
I48
s(I24
I6
tp3505
I60
s(I62
I23
tp3506
I49
s(I27
I19
tp3507
I44
s(I49
I2
tp3508
I57
s(I13
I28
tp3509
I150
s(I52
I9
tp3510
I53
s(I0
I63
tp3511
I53
s(I20
I50
tp3512
I20
s(I3
I26
tp3513
I61
s(I25
I41
tp3514
I222
s(I6
I5
tp3515
I79
s(I28
I50
tp3516
I12
s(I32
I53
tp3517
I11
s(I31
I7
tp3518
I52
s(I53
I54
tp3519
I17
s(I57
I51
tp3520
I18
s(I40
I21
tp3521
I29
s(I21
I29
tp3522
I242
s(I4
I59
tp3523
I45
s(I43
I0
tp3524
I53
s(I8
I62
tp3525
I44
s(I7
I30
tp3526
I53
s(I46
I15
tp3527
I41
s(I29
I45
tp3528
I16
s(I33
I42
tp3529
I15
s(I16
I46
tp3530
I28
s(I36
I33
tp3531
I21
s(I58
I18
tp3532
I50
s(I41
I58
tp3533
I9
s(I61
I39
tp3534
I32
s(I44
I33
tp3535
I21
s(I9
I1
tp3536
I80
s(I48
I36
tp3537
I22
s(I12
I58
tp3538
I36
s(I34
I11
tp3539
I45
s(I15
I31
tp3540
I351
s(I37
I14
tp3541
I39
s(I24
I13
tp3542
I53
s(I62
I30
tp3543
I42
s(I45
I62
tp3544
I17
s(I49
I59
tp3545
I18
s(I13
I21
tp3546
I56
s(I52
I16
tp3547
I46
s(I0
I54
tp3548
I44
s(I20
I57
tp3549
I27
s(I3
I3
tp3550
I84
s(I25
I50
tp3551
I15
s(I28
I9
tp3552
I53
s(I50
I26
tp3553
I34
s(I31
I12
tp3554
I47
s(I53
I63
tp3555
I26
s(I1
I41
tp3556
I48
s(I57
I52
tp3557
I19
s(I40
I28
tp3558
I22
s(I21
I38
tp3559
I253
s(I4
I34
tp3560
I52
s(I8
I37
tp3561
I45
s(I7
I23
tp3562
I60
s(I46
I22
tp3563
I34
s(I29
I38
tp3564
I23
s(I33
I35
tp3565
I22
s(I16
I37
tp3566
I49
s(I36
I40
tp3567
I14
s(I58
I29
tp3568
I39
s(I41
I35
tp3569
I16
s(I22
I15
tp3570
I53
s(I61
I32
tp3571
I39
s(I44
I24
tp3572
I30
s(I9
I10
tp3573
I71
s(I12
I49
tp3574
I29
s(I34
I2
tp3575
I54
s(I17
I58
tp3576
I31
s(I37
I55
tp3577
I8
s(I24
I20
tp3578
I46
s(I62
I1
tp3579
I71
s(I45
I55
tp3580
I10
s(I49
I60
tp3581
I19
s(I13
I14
tp3582
I63
s(I52
I31
tp3583
I31
s(I0
I13
tp3584
I77
s(I38
I30
tp3585
I22
s(I3
I8
tp3586
I79
s(I25
I59
tp3587
I24
s(I28
I0
tp3588
I62
s(I50
I21
tp3589
I39
s(I53
I56
tp3590
I19
s(I1
I34
tp3591
I55
s(I57
I61
tp3592
I28
s(I40
I3
tp3593
I47
s(I21
I47
tp3594
I22
s(I4
I41
tp3595
I45
s(I8
I44
tp3596
I38
s(I7
I12
tp3597
I71
s(I46
I25
tp3598
I31
s(I29
I63
tp3599
I24
s(I33
I36
tp3600
I21
s(I16
I28
tp3601
I147
s(I54
I41
tp3602
I23
s(I58
I36
tp3603
I32
s(I41
I36
tp3604
I15
s(I22
I6
tp3605
I62
s(I5
I54
tp3606
I39
s(I61
I57
tp3607
I28
s(I44
I23
tp3608
I31
s(I9
I51
tp3609
I32
s(I12
I40
tp3610
I240
s(I34
I29
tp3611
I27
s(I17
I51
tp3612
I24
s(I37
I48
tp3613
I5
s(I59
I15
tp3614
I54
s(I24
I27
tp3615
I39
s(I62
I8
tp3616
I64
s(I45
I48
tp3617
I7
s(I10
I18
tp3618
I62
s(I49
I53
tp3619
I12
s(I13
I7
tp3620
I70
s(I0
I4
tp3621
I86
s(I38
I17
tp3622
I35
s(I25
I60
tp3623
I25
s(I28
I31
tp3624
I31
s(I50
I12
tp3625
I48
s(I53
I1
tp3626
I62
s(I1
I59
tp3627
I48
s(I40
I10
tp3628
I40
s(I21
I40
tp3629
I425
s(I4
I16
tp3630
I70
s(I26
I37
tp3631
I126
s(I7
I5
tp3632
I78
s(I46
I32
tp3633
I24
s(I29
I56
tp3634
I17
s(I33
I61
tp3635
I18
s(I16
I19
tp3636
I55
s(I54
I32
tp3637
I32
s(I58
I47
tp3638
I21
s(I41
I45
tp3639
I6
s(I22
I25
tp3640
I43
s(I5
I63
tp3641
I48
s(I61
I50
tp3642
I21
s(I44
I14
tp3643
I40
s(I9
I52
tp3644
I33
s(I47
I3
tp3645
I54
s(I12
I39
tp3646
I241
s(I34
I20
tp3647
I36
s(I17
I52
tp3648
I25
s(I37
I57
tp3649
I10
s(I59
I4
tp3650
I65
s(I42
I52
tp3651
I4
s(I62
I51
tp3652
I23
s(I45
I41
tp3653
I14
s(I10
I29
tp3654
I51
s(I49
I46
tp3655
I13
s(I13
I0
tp3656
I77
s(I0
I27
tp3657
I63
s(I38
I8
tp3658
I44
s(I25
I5
tp3659
I60
s(I63
I16
tp3660
I57
s(I28
I22
tp3661
I40
s(I50
I7
tp3662
I53
s(I14
I33
tp3663
I150
s(I53
I10
tp3664
I53
s(I1
I60
tp3665
I49
s(I21
I49
tp3666
I20
s(I4
I31
tp3667
I55
s(I26
I44
tp3668
I20
s(I7
I2
tp3669
I81
s(I46
I43
tp3670
I13
s(I29
I49
tp3671
I12
s(I33
I54
tp3672
I11
s(I16
I10
tp3673
I64
s(I54
I59
tp3674
I23
s(I19
I7
tp3675
I64
s(I58
I54
tp3676
I22
s(I41
I22
tp3677
I29
s(I22
I16
tp3678
I52
s(I5
I56
tp3679
I41
s(I44
I5
tp3680
I49
s(I9
I61
tp3681
I42
s(I47
I8
tp3682
I49
s(I30
I48
tp3683
I12
s(I34
I47
tp3684
I9
s(I17
I45
tp3685
I28
s(I56
I0
tp3686
I66
s(I37
I34
tp3687
I19
s(I59
I29
tp3688
I40
s(I42
I63
tp3689
I15
s(I62
I58
tp3690
I30
s(I45
I34
tp3691
I21
s(I10
I4
tp3692
I76
s(I49
I39
tp3693
I20
s(I13
I57
tp3694
I34
s(I35
I20
tp3695
I35
s(I0
I18
tp3696
I72
s(I38
I3
tp3697
I49
s(I25
I14
tp3698
I51
s(I63
I25
tp3699
I48
s(I50
I62
tp3700
I22
s(I14
I40
tp3701
I347
s(I53
I19
tp3702
I44
s(I1
I53
tp3703
I42
s(I21
I58
tp3704
I27
s(I4
I6
tp3705
I80
s(I26
I55
tp3706
I19
s(I46
I50
tp3707
I6
s(I29
I10
tp3708
I51
s(I51
I37
tp3709
I24
s(I16
I1
tp3710
I73
s(I54
I50
tp3711
I14
s(I19
I12
tp3712
I59
s(I2
I44
tp3713
I44
s(I58
I49
tp3714
I19
s(I41
I31
tp3715
I20
s(I22
I43
tp3716
I124
s(I5
I33
tp3717
I52
s(I9
I38
tp3718
I43
s(I47
I17
tp3719
I40
s(I30
I59
tp3720
I19
s(I34
I38
tp3721
I18
s(I17
I38
tp3722
I150
s(I56
I7
tp3723
I59
s(I37
I43
tp3724
I10
s(I59
I18
tp3725
I51
s(I42
I38
tp3726
I14
s(I23
I8
tp3727
I59
s(I62
I61
tp3728
I33
s(I45
I27
tp3729
I28
s(I10
I15
tp3730
I65
s(I13
I50
tp3731
I27
s(I35
I29
tp3732
I26
s(I18
I63
tp3733
I35
s(I38
I58
tp3734
I10
s(I25
I23
tp3735
I42
s(I63
I6
tp3736
I67
s(I50
I57
tp3737
I17
s(I14
I51
tp3738
I27
s(I53
I28
tp3739
I35
s(I1
I14
tp3740
I75
s(I39
I25
tp3741
I26
s(I4
I13
tp3742
I73
s(I26
I62
tp3743
I26
s(I46
I53
tp3744
I9
s(I29
I3
tp3745
I58
s(I51
I42
tp3746
I19
s(I54
I53
tp3747
I17
s(I19
I21
tp3748
I50
s(I2
I39
tp3749
I49
s(I58
I56
tp3750
I24
s(I41
I0
tp3751
I51
s(I22
I34
tp3752
I256
s(I5
I42
tp3753
I43
s(I9
I47
tp3754
I34
s(I47
I30
tp3755
I27
s(I30
I34
tp3756
I26
s(I34
I33
tp3757
I23
s(I17
I31
tp3758
I353
s(I56
I14
tp3759
I52
s(I55
I46
tp3760
I19
s(I59
I43
tp3761
I26
s(I42
I33
tp3762
I19
s(I23
I1
tp3763
I66
s(I6
I59
tp3764
I43
s(I62
I36
tp3765
I36
s(I45
I20
tp3766
I35
s(I10
I54
tp3767
I34
s(I13
I43
tp3768
I133
s(I35
I2
tp3769
I53
s(I18
I54
tp3770
I26
s(I38
I61
tp3771
I13
s(I60
I10
tp3772
I60
s(I25
I24
tp3773
I41
s(I63
I15
tp3774
I58
s(I11
I29
tp3775
I151
s(I50
I48
tp3776
I12
s(I14
I58
tp3777
I34
s(I1
I7
tp3778
I82
s(I39
I22
tp3779
I29
s(I26
I57
tp3780
I21
s(I46
I60
tp3781
I16
s(I29
I28
tp3782
I33
s(I51
I51
tp3783
I12
s(I54
I12
tp3784
I52
s(I19
I26
tp3785
I45
s(I2
I62
tp3786
I50
s(I41
I9
tp3787
I42
s(I22
I37
tp3788
I253
s(I5
I19
tp3789
I66
s(I27
I42
tp3790
I21
s(I47
I39
tp3791
I18
s(I30
I37
tp3792
I23
s(I34
I56
tp3793
I12
s(I17
I16
tp3794
I57
s(I56
I21
tp3795
I45
s(I55
I39
tp3796
I26
s(I59
I32
tp3797
I37
s(I42
I40
tp3798
I12
s(I23
I30
tp3799
I340
s(I6
I50
tp3800
I34
s(I62
I47
tp3801
I25
s(I45
I13
tp3802
I42
s(I10
I49
tp3803
I31
s(I32
I14
tp3804
I44
s(I13
I36
tp3805
I47
s(I35
I11
tp3806
I44
s(I18
I49
tp3807
I23
s(I38
I52
tp3808
I4
s(I60
I1
tp3809
I69
s(I43
I59
tp3810
I12
s(I63
I52
tp3811
I25
s(I11
I18
tp3812
I61
s(I50
I43
tp3813
I17
s(I14
I61
tp3814
I37
s(I1
I24
tp3815
I65
s(I39
I15
tp3816
I36
s(I26
I0
tp3817
I64
s(I48
I29
tp3818
I29
s(I29
I21
tp3819
I40
s(I51
I56
tp3820
I17
s(I15
I38
tp3821
I148
s(I54
I7
tp3822
I57
s(I19
I35
tp3823
I54
s(I2
I57
tp3824
I45
s(I22
I60
tp3825
I28
s(I5
I28
tp3826
I57
s(I27
I35
tp3827
I28
s(I47
I44
tp3828
I13
s(I30
I44
tp3829
I16
s(I34
I51
tp3830
I7
s(I17
I9
tp3831
I64
s(I56
I28
tp3832
I38
s(I55
I60
tp3833
I25
s(I20
I2
tp3834
I68
s(I59
I57
tp3835
I26
s(I42
I19
tp3836
I33
s(I23
I23
tp3837
I44
s(I6
I53
tp3838
I37
s(I45
I6
tp3839
I49
s(I10
I56
tp3840
I36
s(I32
I5
tp3841
I53
s(I31
I55
tp3842
I14
s(I35
I48
tp3843
I7
s(I18
I40
tp3844
I351
s(I57
I3
tp3845
I64
s(I38
I47
tp3846
I5
s(I60
I24
tp3847
I46
s(I43
I48
tp3848
I5
s(I63
I61
tp3849
I34
s(I11
I11
tp3850
I68
s(I50
I34
tp3851
I26
s(I14
I4
tp3852
I72
s(I36
I17
tp3853
I37
s(I1
I17
tp3854
I72
s(I39
I4
tp3855
I47
s(I26
I11
tp3856
I53
s(I48
I20
tp3857
I38
s(I51
I1
tp3858
I60
s(I15
I47
tp3859
I28
s(I54
I30
tp3860
I34
s(I19
I40
tp3861
I352
s(I2
I48
tp3862
I40
s(I22
I55
tp3863
I23
s(I5
I5
tp3864
I80
s(I27
I56
tp3865
I19
s(I47
I53
tp3866
I10
s(I30
I23
tp3867
I37
s(I52
I32
tp3868
I30
s(I17
I2
tp3869
I71
s(I56
I35
tp3870
I31
s(I55
I53
tp3871
I18
s(I20
I9
tp3872
I61
s(I3
I51
tp3873
I38
s(I59
I62
tp3874
I31
s(I42
I26
tp3875
I26
s(I23
I44
tp3876
I23
s(I6
I44
tp3877
I40
s(I10
I35
tp3878
I45
s(I32
I28
tp3879
I30
s(I31
I60
tp3880
I19
s(I35
I57
tp3881
I12
s(I18
I35
tp3882
I53
s(I57
I4
tp3883
I63
s(I38
I38
tp3884
I14
s(I60
I23
tp3885
I47
s(I43
I41
tp3886
I12
s(I8
I21
tp3887
I61
s(I63
I58
tp3888
I31
s(I11
I0
tp3889
I79
s(I14
I15
tp3890
I61
s(I36
I24
tp3891
I30
s(I39
I61
tp3892
I12
s(I26
I18
tp3893
I46
s(I48
I11
tp3894
I47
s(I51
I6
tp3895
I55
s(I15
I52
tp3896
I27
s(I54
I17
tp3897
I47
s(I19
I49
tp3898
I22
s(I2
I11
tp3899
I77
s(I24
I36
tp3900
I327
s(I5
I14
tp3901
I71
s(I27
I49
tp3902
I14
s(I47
I50
tp3903
I7
s(I30
I30
tp3904
I30
s(I52
I47
tp3905
I15
s(I56
I42
tp3906
I24
s(I55
I50
tp3907
I15
s(I20
I16
tp3908
I54
s(I3
I56
tp3909
I43
s(I59
I55
tp3910
I24
s(I42
I5
tp3911
I47
s(I23
I37
tp3912
I353
s(I6
I39
tp3913
I45
s(I10
I42
tp3914
I38
s(I32
I19
tp3915
I39
s(I31
I37
tp3916
I22
s(I35
I62
tp3917
I17
s(I18
I26
tp3918
I46
s(I57
I13
tp3919
I54
s(I40
I51
tp3920
I1
s(I60
I46
tp3921
I24
s(I43
I46
tp3922
I7
s(I8
I28
tp3923
I54
s(I7
I60
tp3924
I43
s(I63
I35
tp3925
I38
s(I11
I57
tp3926
I36
s(I14
I22
tp3927
I54
s(I36
I7
tp3928
I47
s(I39
I58
tp3929
I9
s(I61
I9
tp3930
I62
s(I26
I29
tp3931
I134
s(I48
I2
tp3932
I56
s(I12
I24
tp3933
I54
s(I51
I15
tp3934
I46
s(I15
I61
tp3935
I36
s(I19
I54
tp3936
I25
s(I2
I2
tp3937
I86
s(I24
I43
tp3938
I122
s(I27
I54
tp3939
I17
s(I47
I59
tp3940
I16
s(I30
I1
tp3941
I59
s(I52
I54
tp3942
I16
s(I56
I49
tp3943
I17
s(I55
I11
tp3944
I54
s(I20
I31
tp3945
I356
s(I3
I33
tp3946
I54
s(I42
I12
tp3947
I40
s(I23
I34
tp3948
I356
s(I6
I30
tp3949
I54
s(I28
I47
tp3950
I15
s(I32
I42
tp3951
I16
s(I31
I34
tp3952
I25
s(I35
I39
tp3953
I16
s(I18
I21
tp3954
I51
s(I57
I22
tp3955
I45
s(I40
I58
tp3956
I8
s(I60
I37
tp3957
I33
s(I43
I39
tp3958
I14
s(I8
I3
tp3959
I79
s(I7
I53
tp3960
I36
s(I63
I40
tp3961
I33
s(I11
I62
tp3962
I41
s(I33
I13
tp3963
I44
s(I14
I25
tp3964
I51
s(I36
I14
tp3965
I40
s(I39
I51
tp3966
I2
s(I61
I2
tp3967
I69
s(I44
I62
tp3968
I16
s(I48
I57
tp3969
I15
s(I12
I23
tp3970
I55
s(I51
I20
tp3971
I41
s(I15
I58
tp3972
I33
s(I19
I63
tp3973
I34
s(I2
I29
tp3974
I59
s(I24
I50
tp3975
I16
s(I27
I15
tp3976
I48
s(I49
I30
tp3977
I29
s(I30
I8
tp3978
I52
s(I52
I61
tp3979
I23
s(I0
I43
tp3980
I47
s(I56
I56
tp3981
I22
s(I55
I0
tp3982
I65
s(I20
I38
tp3983
I153
s(I3
I38
tp3984
I49
s(I23
I59
tp3985
I26
s(I6
I17
tp3986
I67
s(I28
I38
tp3987
I24
s(I32
I33
tp3988
I25
s(I31
I43
tp3989
I16
s(I35
I44
tp3990
I11
s(I18
I12
tp3991
I60
s(I57
I31
tp3992
I36
s(I40
I33
tp3993
I17
s(I21
I1
tp3994
I68
s(I60
I60
tp3995
I30
s(I43
I28
tp3996
I25
s(I8
I10
tp3997
I72
s(I7
I50
tp3998
I33
s(I11
I55
tp3999
I34
s(I33
I6
tp4000
I51
s(I16
I58
tp4001
I32
s(I36
I53
tp4002
I7
s(I58
I6
tp4003
I62
s(I39
I40
tp4004
I11
s(I61
I27
tp4005
I44
s(I44
I53
tp4006
I7
s(I48
I48
tp4007
I10
s(I12
I14
tp4008
I64
s(I51
I29
tp4009
I32
s(I15
I3
tp4010
I72
s(I37
I18
tp4011
I35
s(I2
I20
tp4012
I68
s(I24
I57
tp4013
I23
s(I27
I4
tp4014
I59
s(I49
I23
tp4015
I36
s(I52
I4
tp4016
I58
s(I0
I34
tp4017
I56
s(I56
I63
tp4018
I29
s(I55
I25
tp4019
I40
s(I20
I45
tp4020
I25
s(I3
I47
tp4021
I40
s(I23
I48
tp4022
I19
s(I6
I8
tp4023
I76
s(I28
I61
tp4024
I23
s(I32
I56
tp4025
I14
s(I31
I16
tp4026
I43
s(I53
I35
tp4027
I28
s(I18
I7
tp4028
I65
s(I57
I32
tp4029
I35
s(I40
I40
tp4030
I10
s(I21
I10
tp4031
I59
s(I4
I54
tp4032
I40
s(I60
I59
tp4033
I29
s(I43
I21
tp4034
I32
s(I8
I49
tp4035
I33
s(I7
I43
tp4036
I40
s(I46
I2
tp4037
I54
s(I11
I44
tp4038
I35
s(I33
I31
tp4039
I26
s(I16
I49
tp4040
I25
s(I36
I60
tp4041
I14
s(I58
I1
tp4042
I67
s(I39
I33
tp4043
I18
s(I61
I20
tp4044
I51
s(I44
I44
tp4045
I10
s(I9
I22
tp4046
I59
s(I48
I55
tp4047
I13
s(I12
I5
tp4048
I73
s(I15
I8
tp4049
I67
s(I37
I27
tp4050
I26
s(I24
I0
tp4051
I66
s(I27
I29
tp4052
I34
s(I49
I8
tp4053
I51
s(I52
I3
tp4054
I59
s(I0
I57
tp4055
I47
s(I55
I22
tp4056
I43
s(I20
I52
tp4057
I22
s(I3
I20
tp4058
I67
s(I25
I39
tp4059
I224
s(I6
I3
tp4060
I81
s(I28
I52
tp4061
I14
s(I32
I63
tp4062
I21
s(I31
I25
tp4063
I34
s(I53
I44
tp4064
I19
s(I57
I41
tp4065
I26
s(I40
I47
tp4066
I3
s(I21
I19
tp4067
I50
s(I4
I61
tp4068
I47
s(I60
I50
tp4069
I20
s(I43
I10
tp4070
I43
s(I8
I56
tp4071
I38
s(I7
I32
tp4072
I51
s(I46
I5
tp4073
I51
s(I11
I37
tp4074
I44
s(I33
I16
tp4075
I41
s(I16
I40
tp4076
I349
s(I36
I59
tp4077
I13
s(I58
I8
tp4078
I60
s(I41
I48
tp4079
I3
s(I61
I45
tp4080
I26
s(I44
I43
tp4081
I11
s(I9
I31
tp4082
I50
s(I48
I46
tp4083
I12
s(I12
I60
tp4084
I38
s(I15
I17
tp4085
I58
s(I37
I4
tp4086
I49
s(I24
I7
tp4087
I59
s(I62
I20
tp4088
I52
s(I27
I18
tp4089
I45
s(I49
I1
tp4090
I58
s(I13
I27
tp4091
I50
s(I52
I10
tp4092
I52
s(I0
I48
tp4093
I42
s(I20
I51
tp4094
I21
s(I3
I29
tp4095
I58
s(I25
I40
tp4096
I223
s(I28
I51
tp4097
I13
s.